ARM GAS  C:\Users\Admin\AppData\Local\Temp\ccWDB4su.s 			page 1


   1              		.cpu cortex-m0
   2              		.fpu softvfp
   3              		.eabi_attribute 20, 1
   4              		.eabi_attribute 21, 1
   5              		.eabi_attribute 23, 3
   6              		.eabi_attribute 24, 1
   7              		.eabi_attribute 25, 1
   8              		.eabi_attribute 26, 1
   9              		.eabi_attribute 30, 6
  10              		.eabi_attribute 34, 0
  11              		.eabi_attribute 18, 4
  12              		.code	16
  13              		.file	"BLEApplications.c"
  14              		.text
  15              	.Ltext0:
  16              		.cfi_sections	.debug_frame
  17              		.comm	RGBledData,4,4
  18              		.comm	rgbHandle,12,4
  19              		.global	deviceConnected
  20              		.bss
  21              		.type	deviceConnected, %object
  22              		.size	deviceConnected, 1
  23              	deviceConnected:
  24 0000 00       		.space	1
  25              		.global	startNotification
  26              		.type	startNotification, %object
  27              		.size	startNotification, 1
  28              	startNotification:
  29 0001 00       		.space	1
  30              		.comm	connectionHandle,2,4
  31              		.global	restartAdvertisement
  32              		.type	restartAdvertisement, %object
  33              		.size	restartAdvertisement, 1
  34              	restartAdvertisement:
  35 0002 00       		.space	1
  36              		.global	updateNotificationCCCAttribute
  37              		.type	updateNotificationCCCAttribute, %object
  38              		.size	updateNotificationCCCAttribute, 1
  39              	updateNotificationCCCAttribute:
  40 0003 00       		.space	1
  41              		.data
  42              		.type	isConnectionUpdateRequested, %object
  43              		.size	isConnectionUpdateRequested, 1
  44              	isConnectionUpdateRequested:
  45 0000 01       		.byte	1
  46 0001 000000   		.align	2
  47              		.type	ConnectionParam, %object
  48              		.size	ConnectionParam, 8
  49              	ConnectionParam:
  50 0004 4006     		.short	1600
  51 0006 4006     		.short	1600
  52 0008 0000     		.short	0
  53 000a 5802     		.short	600
  54              		.global	busyStatus
  55              		.bss
  56              		.type	busyStatus, %object
  57              		.size	busyStatus, 1
ARM GAS  C:\Users\Admin\AppData\Local\Temp\ccWDB4su.s 			page 2


  58              	busyStatus:
  59 0004 00       		.space	1
  60              		.section	.text.InitializeBLESystem,"ax",%progbits
  61              		.align	2
  62              		.global	InitializeBLESystem
  63              		.code	16
  64              		.thumb_func
  65              		.type	InitializeBLESystem, %function
  66              	InitializeBLESystem:
  67              	.LFB35:
  68              		.file 1 ".\\BLEApplications.c"
   1:.\BLEApplications.c **** /***************************************************************************//**
   2:.\BLEApplications.c **** * @file    BLEApplications.c
   3:.\BLEApplications.c **** * @version 1.0
   4:.\BLEApplications.c **** * @author  Chethan (dche@cypress.com)
   5:.\BLEApplications.c **** *
   6:.\BLEApplications.c **** * @par Description
   7:.\BLEApplications.c **** *     This file contains the source code for the APIs used for BLE communication.
   8:.\BLEApplications.c **** *
   9:.\BLEApplications.c **** * @par Notes
  10:.\BLEApplications.c **** *	None
  11:.\BLEApplications.c **** *
  12:.\BLEApplications.c **** * @par Hardware Dependency
  13:.\BLEApplications.c **** *    1. CY8CKIT-042 BLE Pioneer Kit
  14:.\BLEApplications.c **** *
  15:.\BLEApplications.c **** * @par References
  16:.\BLEApplications.c **** *    1. 001-32359: AN2283 "PSoC1: Frequency Measurement"
  17:.\BLEApplications.c **** *
  18:.\BLEApplications.c **** * @par Code Tested With
  19:.\BLEApplications.c **** *    1. PSoC Creator  3.1 SP2 (3.1.0.2177)
  20:.\BLEApplications.c **** *    2. GCC 4.8.4
  21:.\BLEApplications.c **** *
  22:.\BLEApplications.c **** **//****************************************************************************
  23:.\BLEApplications.c **** * Copyright (2015), Cypress Semiconductor Corporation.
  24:.\BLEApplications.c **** ********************************************************************************
  25:.\BLEApplications.c **** * All rights reserved. 
  26:.\BLEApplications.c **** * This software, including source code, documentation and related 
  27:.\BLEApplications.c **** * materials (“Software”), is owned by Cypress Semiconductor 
  28:.\BLEApplications.c **** * Corporation (“Cypress”) and is protected by and subject to worldwide 
  29:.\BLEApplications.c **** * patent protection (United States and foreign), United States copyright 
  30:.\BLEApplications.c **** * laws and international treaty provisions. Therefore, you may use this 
  31:.\BLEApplications.c **** * Software only as provided in the license agreement accompanying the 
  32:.\BLEApplications.c **** * software package from which you obtained this Software (“EULA”). 
  33:.\BLEApplications.c **** *
  34:.\BLEApplications.c **** * If no EULA applies, Cypress hereby grants you a personal, non-exclusive, 
  35:.\BLEApplications.c **** * non-transferable license to copy, modify and compile the Software source code
  36:.\BLEApplications.c **** * solely for your use in connection with Cypress's integrated circuit products.
  37:.\BLEApplications.c **** * Any reproduction, modification, translation, compilation, or representation
  38:.\BLEApplications.c **** * of this Software except as specified above is prohibited without the express
  39:.\BLEApplications.c **** * written permission of Cypress.
  40:.\BLEApplications.c **** 
  41:.\BLEApplications.c **** * Disclaimer: THIS SOFTWARE IS PROVIDED AS-IS, WITH NO WARRANTY OF ANY KIND,
  42:.\BLEApplications.c **** * EXPRESS OR IMPLIED, INCLUDING, BUT NOT LIMITED TO, NONINFRINGEMENT, IMPLIED
  43:.\BLEApplications.c **** * WARRANTIES OF MERCHANTABILITY AND FITNESS FOR A PARTICULAR PURPOSE.
  44:.\BLEApplications.c **** * Cypress reserves the right to make changes to the Software without notice. 
  45:.\BLEApplications.c **** * Cypress does not assume any liability arising out of the application or use 
  46:.\BLEApplications.c **** * of the Software or any product or circuit described in the Software. Cypress
ARM GAS  C:\Users\Admin\AppData\Local\Temp\ccWDB4su.s 			page 3


  47:.\BLEApplications.c **** * does not authorize its products for use in any products where a malfunction
  48:.\BLEApplications.c **** * or failure of the Cypress product may reasonably be expected to result in 
  49:.\BLEApplications.c **** * significant property damage, injury or death (“High Risk Product”). By 
  50:.\BLEApplications.c **** * including Cypress’s product in a High Risk Product, the manufacturer of such  
  51:.\BLEApplications.c **** * system or application assumes all risk of such use and in doing so agrees to  
  52:.\BLEApplications.c **** * indemnify Cypress against all liability. 
  53:.\BLEApplications.c **** *******************************************************************************/
  54:.\BLEApplications.c **** 
  55:.\BLEApplications.c **** /******************************************************************************
  56:.\BLEApplications.c **** * Contains BLE application functions definitions such as EventHandler and Macro
  57:.\BLEApplications.c **** * definitions
  58:.\BLEApplications.c **** ******************************************************************************/
  59:.\BLEApplications.c **** #include "main.h"
  60:.\BLEApplications.c **** 
  61:.\BLEApplications.c **** /**************************Variable Declarations*****************************/
  62:.\BLEApplications.c **** /* Array to store the present RGB LED control data. The 4 bytes 
  63:.\BLEApplications.c **** * of the array represents {R, G, B, Intensity} */
  64:.\BLEApplications.c **** //uint8 RGBledData[RGB_CHAR_DATA_LEN];
  65:.\BLEApplications.c **** 
  66:.\BLEApplications.c **** /* 'rgbHandle' stores RGB control data parameters */
  67:.\BLEApplications.c **** CYBLE_GATT_HANDLE_VALUE_PAIR_T		rgbHandle;	
  68:.\BLEApplications.c **** 
  69:.\BLEApplications.c **** /*'deviceConnected' flag is used by application to know whether a Central device  
  70:.\BLEApplications.c **** * has been connected. This is updated in BLE event callback */
  71:.\BLEApplications.c **** uint8 deviceConnected = FALSE;	
  72:.\BLEApplications.c **** 
  73:.\BLEApplications.c **** /*'startNotification' flag is set when the central device writes to CCC (Client 
  74:.\BLEApplications.c **** * Characteristic Configuration) of the Custom characteristic to 
  75:.\BLEApplications.c **** * enable notifications */
  76:.\BLEApplications.c **** uint8 startNotification = FALSE;		
  77:.\BLEApplications.c **** 
  78:.\BLEApplications.c **** /* 'connectionHandle' is handle to store BLE connection parameters */
  79:.\BLEApplications.c **** CYBLE_CONN_HANDLE_T  connectionHandle;	
  80:.\BLEApplications.c **** 
  81:.\BLEApplications.c **** /* 'restartAdvertisement' flag provided the present state of power mode in firmware */
  82:.\BLEApplications.c **** uint8 restartAdvertisement = FALSE;
  83:.\BLEApplications.c **** 
  84:.\BLEApplications.c **** /* This flag is used to let application update the CCCD value for correct read 
  85:.\BLEApplications.c **** * operation by connected Central device */
  86:.\BLEApplications.c **** uint8 updateNotificationCCCAttribute = FALSE;
  87:.\BLEApplications.c **** 
  88:.\BLEApplications.c **** /* This flag is used to let application send a L2CAP connection update request
  89:.\BLEApplications.c **** * to Central device */
  90:.\BLEApplications.c **** static uint8 isConnectionUpdateRequested = TRUE;
  91:.\BLEApplications.c **** 
  92:.\BLEApplications.c **** /* Connection Parameter update values. This values are used by the BLE component
  93:.\BLEApplications.c **** * to update the connector parameter, including connection interval, to desired 
  94:.\BLEApplications.c **** * value */
  95:.\BLEApplications.c **** static CYBLE_GAP_CONN_UPDATE_PARAM_T ConnectionParam =
  96:.\BLEApplications.c **** {
  97:.\BLEApplications.c ****     CONN_PARAM_UPDATE_MIN_CONN_INTERVAL,  		      
  98:.\BLEApplications.c ****     CONN_PARAM_UPDATE_MAX_CONN_INTERVAL,		       
  99:.\BLEApplications.c ****     CONN_PARAM_UPDATE_SLAVE_LATENCY,			    
 100:.\BLEApplications.c ****     CONN_PARAM_UPDATE_SUPRV_TIMEOUT 			         	
 101:.\BLEApplications.c **** };
 102:.\BLEApplications.c **** 
 103:.\BLEApplications.c **** /* Status flag for the Stack Busy state. This flag is used to notify the application 
ARM GAS  C:\Users\Admin\AppData\Local\Temp\ccWDB4su.s 			page 4


 104:.\BLEApplications.c **** * whether there is stack buffer free to push more data or not */
 105:.\BLEApplications.c **** uint8 busyStatus = 0;
 106:.\BLEApplications.c **** /****************************************************************************/
 107:.\BLEApplications.c **** 
 108:.\BLEApplications.c **** /*******************************************************************************
 109:.\BLEApplications.c **** * Function Name: InitializeBLESystem
 110:.\BLEApplications.c **** ********************************************************************************
 111:.\BLEApplications.c **** * Summary:
 112:.\BLEApplications.c **** *  Starts the BLE component and wakeup_button_ISR
 113:.\BLEApplications.c **** *
 114:.\BLEApplications.c **** * Parameters:
 115:.\BLEApplications.c **** *  void
 116:.\BLEApplications.c **** *
 117:.\BLEApplications.c **** * Return:
 118:.\BLEApplications.c **** *  void
 119:.\BLEApplications.c **** *
 120:.\BLEApplications.c **** *******************************************************************************/
 121:.\BLEApplications.c **** void InitializeBLESystem(void)
 122:.\BLEApplications.c **** {
  69              		.loc 1 122 0
  70              		.cfi_startproc
  71 0000 80B5     		push	{r7, lr}
  72              		.cfi_def_cfa_offset 8
  73              		.cfi_offset 7, -8
  74              		.cfi_offset 14, -4
  75 0002 00AF     		add	r7, sp, #0
  76              		.cfi_def_cfa_register 7
 123:.\BLEApplications.c **** 	/*Start BLE component and register the CustomEventHandler function. This 
 124:.\BLEApplications.c **** 	* function exposes the events from BLE component for application use */ 
 125:.\BLEApplications.c **** 	CyBle_Start(CustomEventHandler);					
  77              		.loc 1 125 0
  78 0004 024B     		ldr	r3, .L2
  79 0006 181C     		mov	r0, r3
  80 0008 FFF7FEFF 		bl	CyBle_Start
 126:.\BLEApplications.c **** 	
 127:.\BLEApplications.c **** 	/* Set drive mode of the status LED pin to Strong */
 128:.\BLEApplications.c **** 	//Status_LED_SetDriveMode(Status_LED_DM_STRONG);	
 129:.\BLEApplications.c **** }
  81              		.loc 1 129 0
  82 000c BD46     		mov	sp, r7
  83              		@ sp needed
  84 000e 80BD     		pop	{r7, pc}
  85              	.L3:
  86              		.align	2
  87              	.L2:
  88 0010 00000000 		.word	CustomEventHandler
  89              		.cfi_endproc
  90              	.LFE35:
  91              		.size	InitializeBLESystem, .-InitializeBLESystem
  92              		.section	.text.CustomEventHandler,"ax",%progbits
  93              		.align	2
  94              		.global	CustomEventHandler
  95              		.code	16
  96              		.thumb_func
  97              		.type	CustomEventHandler, %function
  98              	CustomEventHandler:
  99              	.LFB36:
ARM GAS  C:\Users\Admin\AppData\Local\Temp\ccWDB4su.s 			page 5


 130:.\BLEApplications.c **** 
 131:.\BLEApplications.c **** /*******************************************************************************
 132:.\BLEApplications.c **** * Function Name: CustomEventHandler
 133:.\BLEApplications.c **** ********************************************************************************
 134:.\BLEApplications.c **** * Summary:
 135:.\BLEApplications.c **** *  Call back event function to handle various events from BLE stack
 136:.\BLEApplications.c **** *
 137:.\BLEApplications.c **** * Parameters:
 138:.\BLEApplications.c **** *  event:		event returned
 139:.\BLEApplications.c **** *  eventParam:	link to value of the event parameter returned
 140:.\BLEApplications.c **** *
 141:.\BLEApplications.c **** * Return:
 142:.\BLEApplications.c **** *  void
 143:.\BLEApplications.c **** *
 144:.\BLEApplications.c **** *******************************************************************************/
 145:.\BLEApplications.c **** void CustomEventHandler(uint32 event, void *eventParam)
 146:.\BLEApplications.c **** {
 100              		.loc 1 146 0
 101              		.cfi_startproc
 102 0000 80B5     		push	{r7, lr}
 103              		.cfi_def_cfa_offset 8
 104              		.cfi_offset 7, -8
 105              		.cfi_offset 14, -4
 106 0002 84B0     		sub	sp, sp, #16
 107              		.cfi_def_cfa_offset 24
 108 0004 00AF     		add	r7, sp, #0
 109              		.cfi_def_cfa_register 7
 110 0006 7860     		str	r0, [r7, #4]
 111 0008 3960     		str	r1, [r7]
 147:.\BLEApplications.c ****     CYBLE_GATTS_WRITE_REQ_PARAM_T *wrReqParam;
 148:.\BLEApplications.c **** 	
 149:.\BLEApplications.c ****     switch(event)
 112              		.loc 1 149 0
 113 000a 7B68     		ldr	r3, [r7, #4]
 114 000c 282B     		cmp	r3, #40
 115 000e 21D0     		beq	.L6
 116 0010 07D8     		bhi	.L7
 117 0012 052B     		cmp	r3, #5
 118 0014 00D1     		bne	.LCB46
 119 0016 86E0     		b	.L8	@long jump
 120              	.LCB46:
 121 0018 262B     		cmp	r3, #38
 122 001a 12D0     		beq	.L9
 123 001c 012B     		cmp	r3, #1
 124 001e 0CD0     		beq	.L10
 150:.\BLEApplications.c **** 	{
 151:.\BLEApplications.c ****         /**********************************************************
 152:.\BLEApplications.c ****         *                       General Events
 153:.\BLEApplications.c ****         ***********************************************************/
 154:.\BLEApplications.c **** 		case CYBLE_EVT_STACK_ON:
 155:.\BLEApplications.c **** 			/* This event is received when component is Started */
 156:.\BLEApplications.c **** 
 157:.\BLEApplications.c **** 			/* Set restartAdvertisement flag to allow calling Advertisement 
 158:.\BLEApplications.c **** 			* API from main function */
 159:.\BLEApplications.c **** 			restartAdvertisement = TRUE;
 160:.\BLEApplications.c **** 			
 161:.\BLEApplications.c **** 			break;
ARM GAS  C:\Users\Admin\AppData\Local\Temp\ccWDB4su.s 			page 6


 162:.\BLEApplications.c **** 		
 163:.\BLEApplications.c ****         /**********************************************************
 164:.\BLEApplications.c ****         *                       GAP Events
 165:.\BLEApplications.c ****         ***********************************************************/
 166:.\BLEApplications.c **** 		
 167:.\BLEApplications.c ****         case CYBLE_EVT_GAPP_ADVERTISEMENT_START_STOP:
 168:.\BLEApplications.c **** 			
 169:.\BLEApplications.c **** 			if(CyBle_GetState() == CYBLE_STATE_DISCONNECTED)
 170:.\BLEApplications.c **** 			{
 171:.\BLEApplications.c **** 				/* Set restartAdvertisement flag to allow calling Advertisement 
 172:.\BLEApplications.c **** 				* API from main function */
 173:.\BLEApplications.c **** 				restartAdvertisement = TRUE;
 174:.\BLEApplications.c **** 			}
 175:.\BLEApplications.c **** 			break;
 176:.\BLEApplications.c **** 		
 177:.\BLEApplications.c ****         case CYBLE_EVT_GAP_DEVICE_DISCONNECTED:		
 178:.\BLEApplications.c **** 			/* This event is received when device is disconnected */
 179:.\BLEApplications.c **** 			
 180:.\BLEApplications.c **** 			/* Set restartAdvertisement flag to allow calling Advertisement 
 181:.\BLEApplications.c **** 			* API from main function */
 182:.\BLEApplications.c **** 			restartAdvertisement = TRUE;
 183:.\BLEApplications.c **** 
 184:.\BLEApplications.c ****             break;
 185:.\BLEApplications.c **** 
 186:.\BLEApplications.c ****         /**********************************************************
 187:.\BLEApplications.c ****         *                       GATT Events
 188:.\BLEApplications.c ****         ***********************************************************/
 189:.\BLEApplications.c ****         case CYBLE_EVT_GATT_CONNECT_IND:
 190:.\BLEApplications.c **** 			/* This event is received when device is connected over GATT level */
 191:.\BLEApplications.c **** 			
 192:.\BLEApplications.c **** 			/* Update attribute handle on GATT Connection*/
 193:.\BLEApplications.c ****             connectionHandle = *(CYBLE_CONN_HANDLE_T *)eventParam;	
 194:.\BLEApplications.c **** 			
 195:.\BLEApplications.c **** 			/* This flag is used in application to check connection status */
 196:.\BLEApplications.c **** 			deviceConnected = TRUE;	
 197:.\BLEApplications.c **** 	
 198:.\BLEApplications.c ****             break;
 199:.\BLEApplications.c **** 			
 200:.\BLEApplications.c ****         case CYBLE_EVT_GATT_DISCONNECT_IND:	
 201:.\BLEApplications.c **** 			/*This event is received when device is disconnected. 
 202:.\BLEApplications.c **** 			* Update connection flag accordingly */
 203:.\BLEApplications.c **** 			deviceConnected = FALSE;
 204:.\BLEApplications.c **** 			
 205:.\BLEApplications.c **** 			/* Reset notification flag to prevent further notifications
 206:.\BLEApplications.c **** 			 * being sent to Central device after next connection. */
 207:.\BLEApplications.c **** 			startNotification = FALSE;
 208:.\BLEApplications.c **** 			
 209:.\BLEApplications.c **** 			/* Reset the CCCD value to disable notifications */
 210:.\BLEApplications.c **** 			updateNotificationCCCAttribute = TRUE;
 211:.\BLEApplications.c **** 			UpdateNotificationCCCD();
 212:.\BLEApplications.c ****             /* Reset the color coordinates */
 213:.\BLEApplications.c **** 			RGBledData[RED_INDEX] = ZERO;
 214:.\BLEApplications.c ****             RGBledData[GREEN_INDEX] = ZERO;
 215:.\BLEApplications.c ****             RGBledData[BLUE_INDEX] = ZERO;
 216:.\BLEApplications.c ****             RGBledData[INTENSITY_INDEX] = ZERO;
 217:.\BLEApplications.c **** 			UpdateRGBled();
 218:.\BLEApplications.c **** 			
ARM GAS  C:\Users\Admin\AppData\Local\Temp\ccWDB4su.s 			page 7


 219:.\BLEApplications.c **** 			/* Reset the isConnectionUpdateRequested flag to allow sending
 220:.\BLEApplications.c **** 			* connection parameter update request in next connection */
 221:.\BLEApplications.c **** 			isConnectionUpdateRequested = TRUE;
 222:.\BLEApplications.c **** 			break;    
 223:.\BLEApplications.c ****             
 224:.\BLEApplications.c ****         case CYBLE_EVT_GATTS_WRITE_REQ:				
 225:.\BLEApplications.c **** 			/*When this event is triggered, the peripheral has received 
 226:.\BLEApplications.c **** 			* a write command on the custom characteristic */
 227:.\BLEApplications.c **** 			
 228:.\BLEApplications.c **** 			/* Extract the write value from the event parameter */
 229:.\BLEApplications.c ****             wrReqParam = (CYBLE_GATTS_WRITE_REQ_PARAM_T *) eventParam;
 230:.\BLEApplications.c **** 			
 231:.\BLEApplications.c **** 			/* Check if the returned handle is matching to Frequency Measurement Client custom configuration
 232:.\BLEApplications.c ****             if(CYBLE_PSOC4_FREQ_MEASUREMENT_FREQ_MEASUREMENT_CLIENT_CHARACTERISTIC_CONFIGURATION_DE
 233:.\BLEApplications.c ****             {
 234:.\BLEApplications.c ****                 /* Set flag so that application can start  sending notifications.*/
 235:.\BLEApplications.c **** 				startNotification = wrReqParam->handleValPair.value.val[CYBLE_PSOC4_FREQ_MEASUREMENT_FREQ_MEASU
 236:.\BLEApplications.c **** 				
 237:.\BLEApplications.c **** 				if(startNotification == 1)
 238:.\BLEApplications.c **** 				{
 239:.\BLEApplications.c **** 					/* After the connection, send new connection parameter to the Client device 
 240:.\BLEApplications.c **** 					* to run the BLE communication on desired interval. This affects the data rate 
 241:.\BLEApplications.c **** 					* and power consumption. High connection interval will have lower data rate but 
 242:.\BLEApplications.c **** 					* lower power consumption. Low connection interval will have higher data rate at
 243:.\BLEApplications.c **** 					* expense of higher power. This function is called only once per connection. */
 244:.\BLEApplications.c **** 					UpdateConnectionParam();
 245:.\BLEApplications.c **** 				}
 246:.\BLEApplications.c **** 				/* Set flag to allow CCCD to be updated for next read operation */
 247:.\BLEApplications.c **** 				updateNotificationCCCAttribute = TRUE;
 248:.\BLEApplications.c **** 			}
 249:.\BLEApplications.c ****            
 250:.\BLEApplications.c **** 			/* Send the response to the write command received. */
 251:.\BLEApplications.c **** 			CyBle_GattsWriteRsp(connectionHandle);
 252:.\BLEApplications.c ****             
 253:.\BLEApplications.c ****             
 254:.\BLEApplications.c **** 			/* This condition checks whether the RGB LED characteristic was
 255:.\BLEApplications.c ****              * written to by matching the attribute handle.
 256:.\BLEApplications.c ****              * If the attribute handle matches, then the value written to the 
 257:.\BLEApplications.c ****              * attribute is extracted and used to drive RGB LED.
 258:.\BLEApplications.c ****              */
 259:.\BLEApplications.c ****             
 260:.\BLEApplications.c ****             /* Extract the attribute handle for the RGB LED 
 261:.\BLEApplications.c ****              * characteristic from the custom service data structure.
 262:.\BLEApplications.c ****              */
 263:.\BLEApplications.c ****             if(wrReqParam->handleValPair.attrHandle == cyBle_customs[RGB_LED_SERVICE_INDEX].\
 264:.\BLEApplications.c **** 								customServiceInfo[RGB_LED_CHAR_INDEX].customServiceCharHandle)
 265:.\BLEApplications.c ****             {
 266:.\BLEApplications.c ****                 /* Extract the value of the attribute from the handle-value pair 
 267:.\BLEApplications.c ****                  * database. */
 268:.\BLEApplications.c ****                 RGBledData[RED_INDEX] = wrReqParam->handleValPair.value.val[RED_INDEX];
 269:.\BLEApplications.c ****                 RGBledData[GREEN_INDEX] = wrReqParam->handleValPair.value.val[GREEN_INDEX];
 270:.\BLEApplications.c ****                 RGBledData[BLUE_INDEX] = wrReqParam->handleValPair.value.val[BLUE_INDEX];
 271:.\BLEApplications.c ****                 RGBledData[INTENSITY_INDEX] = wrReqParam->handleValPair.value.val[INTENSITY_INDEX];
 272:.\BLEApplications.c ****                 
 273:.\BLEApplications.c ****                 /* Update the PrISM components and the attribute for RGB LED read 
 274:.\BLEApplications.c ****                  * characteristics */
 275:.\BLEApplications.c ****                 UpdateRGBled();
ARM GAS  C:\Users\Admin\AppData\Local\Temp\ccWDB4su.s 			page 8


 276:.\BLEApplications.c ****             }
 277:.\BLEApplications.c ****             break;
 278:.\BLEApplications.c **** 			
 279:.\BLEApplications.c **** 		case CYBLE_EVT_L2CAP_CONN_PARAM_UPDATE_RSP:
 280:.\BLEApplications.c **** 				/* If L2CAP connection parameter update response received, reset application flag */
 281:.\BLEApplications.c ****             	isConnectionUpdateRequested = FALSE;
 282:.\BLEApplications.c ****             break;
 283:.\BLEApplications.c **** 		
 284:.\BLEApplications.c **** 		case CYBLE_EVT_STACK_BUSY_STATUS:
 285:.\BLEApplications.c **** 			/* This event is generated when the internal stack buffer is full and no more
 286:.\BLEApplications.c **** 			* data can be accepted or the stack has buffer available and can accept data.
 287:.\BLEApplications.c **** 			* This event is used by application to prevent pushing lot of data to stack. */
 288:.\BLEApplications.c **** 			
 289:.\BLEApplications.c **** 			/* Extract the present stack status */
 290:.\BLEApplications.c ****             busyStatus = * (uint8*)eventParam;
 291:.\BLEApplications.c ****             break;
 292:.\BLEApplications.c **** 			
 293:.\BLEApplications.c ****         default:
 294:.\BLEApplications.c ****                         
 295:.\BLEApplications.c ****             break;
 125              		.loc 1 295 0
 126 0020 86E0     		b	.L4
 127              	.L7:
 149:.\BLEApplications.c ****     switch(event)
 128              		.loc 1 149 0
 129 0022 422B     		cmp	r3, #66
 130 0024 28D0     		beq	.L11
 131 0026 02D8     		bhi	.L12
 132 0028 412B     		cmp	r3, #65
 133 002a 17D0     		beq	.L13
 134              		.loc 1 295 0
 135 002c 80E0     		b	.L4
 136              	.L12:
 149:.\BLEApplications.c ****     switch(event)
 137              		.loc 1 149 0
 138 002e 4C2B     		cmp	r3, #76
 139 0030 3FD0     		beq	.L14
 140 0032 712B     		cmp	r3, #113
 141 0034 00D1     		bne	.LCB68
 142 0036 72E0     		b	.L15	@long jump
 143              	.LCB68:
 144              		.loc 1 295 0
 145 0038 7AE0     		b	.L4
 146              	.L10:
 159:.\BLEApplications.c **** 			restartAdvertisement = TRUE;
 147              		.loc 1 159 0
 148 003a 3F4B     		ldr	r3, .L21
 149 003c 0122     		mov	r2, #1
 150 003e 1A70     		strb	r2, [r3]
 161:.\BLEApplications.c **** 			break;
 151              		.loc 1 161 0
 152 0040 76E0     		b	.L4
 153              	.L9:
 169:.\BLEApplications.c **** 			if(CyBle_GetState() == CYBLE_STATE_DISCONNECTED)
 154              		.loc 1 169 0
 155 0042 3E4B     		ldr	r3, .L21+4
 156 0044 1B78     		ldrb	r3, [r3]
ARM GAS  C:\Users\Admin\AppData\Local\Temp\ccWDB4su.s 			page 9


 157 0046 042B     		cmp	r3, #4
 158 0048 03D1     		bne	.L17
 173:.\BLEApplications.c **** 				restartAdvertisement = TRUE;
 159              		.loc 1 173 0
 160 004a 3B4B     		ldr	r3, .L21
 161 004c 0122     		mov	r2, #1
 162 004e 1A70     		strb	r2, [r3]
 175:.\BLEApplications.c **** 			break;
 163              		.loc 1 175 0
 164 0050 6EE0     		b	.L4
 165              	.L17:
 166 0052 6DE0     		b	.L4
 167              	.L6:
 182:.\BLEApplications.c **** 			restartAdvertisement = TRUE;
 168              		.loc 1 182 0
 169 0054 384B     		ldr	r3, .L21
 170 0056 0122     		mov	r2, #1
 171 0058 1A70     		strb	r2, [r3]
 184:.\BLEApplications.c ****             break;
 172              		.loc 1 184 0
 173 005a 69E0     		b	.L4
 174              	.L13:
 193:.\BLEApplications.c ****             connectionHandle = *(CYBLE_CONN_HANDLE_T *)eventParam;	
 175              		.loc 1 193 0
 176 005c 384A     		ldr	r2, .L21+8
 177 005e 3B68     		ldr	r3, [r7]
 178 0060 111C     		mov	r1, r2
 179 0062 1A1C     		mov	r2, r3
 180 0064 0223     		mov	r3, #2
 181 0066 081C     		mov	r0, r1
 182 0068 111C     		mov	r1, r2
 183 006a 1A1C     		mov	r2, r3
 184 006c FFF7FEFF 		bl	memcpy
 196:.\BLEApplications.c **** 			deviceConnected = TRUE;	
 185              		.loc 1 196 0
 186 0070 344B     		ldr	r3, .L21+12
 187 0072 0122     		mov	r2, #1
 188 0074 1A70     		strb	r2, [r3]
 198:.\BLEApplications.c ****             break;
 189              		.loc 1 198 0
 190 0076 5BE0     		b	.L4
 191              	.L11:
 203:.\BLEApplications.c **** 			deviceConnected = FALSE;
 192              		.loc 1 203 0
 193 0078 324B     		ldr	r3, .L21+12
 194 007a 0022     		mov	r2, #0
 195 007c 1A70     		strb	r2, [r3]
 207:.\BLEApplications.c **** 			startNotification = FALSE;
 196              		.loc 1 207 0
 197 007e 324B     		ldr	r3, .L21+16
 198 0080 0022     		mov	r2, #0
 199 0082 1A70     		strb	r2, [r3]
 210:.\BLEApplications.c **** 			updateNotificationCCCAttribute = TRUE;
 200              		.loc 1 210 0
 201 0084 314B     		ldr	r3, .L21+20
 202 0086 0122     		mov	r2, #1
 203 0088 1A70     		strb	r2, [r3]
ARM GAS  C:\Users\Admin\AppData\Local\Temp\ccWDB4su.s 			page 10


 211:.\BLEApplications.c **** 			UpdateNotificationCCCD();
 204              		.loc 1 211 0
 205 008a FFF7FEFF 		bl	UpdateNotificationCCCD
 213:.\BLEApplications.c **** 			RGBledData[RED_INDEX] = ZERO;
 206              		.loc 1 213 0
 207 008e 304B     		ldr	r3, .L21+24
 208 0090 0022     		mov	r2, #0
 209 0092 1A70     		strb	r2, [r3]
 214:.\BLEApplications.c ****             RGBledData[GREEN_INDEX] = ZERO;
 210              		.loc 1 214 0
 211 0094 2E4B     		ldr	r3, .L21+24
 212 0096 0022     		mov	r2, #0
 213 0098 5A70     		strb	r2, [r3, #1]
 215:.\BLEApplications.c ****             RGBledData[BLUE_INDEX] = ZERO;
 214              		.loc 1 215 0
 215 009a 2D4B     		ldr	r3, .L21+24
 216 009c 0022     		mov	r2, #0
 217 009e 9A70     		strb	r2, [r3, #2]
 216:.\BLEApplications.c ****             RGBledData[INTENSITY_INDEX] = ZERO;
 218              		.loc 1 216 0
 219 00a0 2B4B     		ldr	r3, .L21+24
 220 00a2 0022     		mov	r2, #0
 221 00a4 DA70     		strb	r2, [r3, #3]
 217:.\BLEApplications.c **** 			UpdateRGBled();
 222              		.loc 1 217 0
 223 00a6 FFF7FEFF 		bl	UpdateRGBled
 221:.\BLEApplications.c **** 			isConnectionUpdateRequested = TRUE;
 224              		.loc 1 221 0
 225 00aa 2A4B     		ldr	r3, .L21+28
 226 00ac 0122     		mov	r2, #1
 227 00ae 1A70     		strb	r2, [r3]
 222:.\BLEApplications.c **** 			break;    
 228              		.loc 1 222 0
 229 00b0 3EE0     		b	.L4
 230              	.L14:
 229:.\BLEApplications.c ****             wrReqParam = (CYBLE_GATTS_WRITE_REQ_PARAM_T *) eventParam;
 231              		.loc 1 229 0
 232 00b2 3B68     		ldr	r3, [r7]
 233 00b4 FB60     		str	r3, [r7, #12]
 232:.\BLEApplications.c ****             if(CYBLE_PSOC4_FREQ_MEASUREMENT_FREQ_MEASUREMENT_CLIENT_CHARACTERISTIC_CONFIGURATION_DE
 234              		.loc 1 232 0
 235 00b6 FB68     		ldr	r3, [r7, #12]
 236 00b8 9B89     		ldrh	r3, [r3, #12]
 237 00ba 0F2B     		cmp	r3, #15
 238 00bc 0DD1     		bne	.L18
 235:.\BLEApplications.c **** 				startNotification = wrReqParam->handleValPair.value.val[CYBLE_PSOC4_FREQ_MEASUREMENT_FREQ_MEASU
 239              		.loc 1 235 0
 240 00be FB68     		ldr	r3, [r7, #12]
 241 00c0 5B68     		ldr	r3, [r3, #4]
 242 00c2 1A78     		ldrb	r2, [r3]
 243 00c4 204B     		ldr	r3, .L21+16
 244 00c6 1A70     		strb	r2, [r3]
 237:.\BLEApplications.c **** 				if(startNotification == 1)
 245              		.loc 1 237 0
 246 00c8 1F4B     		ldr	r3, .L21+16
 247 00ca 1B78     		ldrb	r3, [r3]
 248 00cc 012B     		cmp	r3, #1
ARM GAS  C:\Users\Admin\AppData\Local\Temp\ccWDB4su.s 			page 11


 249 00ce 01D1     		bne	.L19
 244:.\BLEApplications.c **** 					UpdateConnectionParam();
 250              		.loc 1 244 0
 251 00d0 FFF7FEFF 		bl	UpdateConnectionParam
 252              	.L19:
 247:.\BLEApplications.c **** 				updateNotificationCCCAttribute = TRUE;
 253              		.loc 1 247 0
 254 00d4 1D4B     		ldr	r3, .L21+20
 255 00d6 0122     		mov	r2, #1
 256 00d8 1A70     		strb	r2, [r3]
 257              	.L18:
 251:.\BLEApplications.c **** 			CyBle_GattsWriteRsp(connectionHandle);
 258              		.loc 1 251 0
 259 00da 194B     		ldr	r3, .L21+8
 260 00dc 1868     		ldr	r0, [r3]
 261 00de FFF7FEFF 		bl	CyBle_GattsWriteRsp
 263:.\BLEApplications.c ****             if(wrReqParam->handleValPair.attrHandle == cyBle_customs[RGB_LED_SERVICE_INDEX].\
 262              		.loc 1 263 0
 263 00e2 FB68     		ldr	r3, [r7, #12]
 264 00e4 9A89     		ldrh	r2, [r3, #12]
 264:.\BLEApplications.c **** 								customServiceInfo[RGB_LED_CHAR_INDEX].customServiceCharHandle)
 265              		.loc 1 264 0
 266 00e6 1C4B     		ldr	r3, .L21+32
 267 00e8 5B89     		ldrh	r3, [r3, #10]
 263:.\BLEApplications.c ****             if(wrReqParam->handleValPair.attrHandle == cyBle_customs[RGB_LED_SERVICE_INDEX].\
 268              		.loc 1 263 0
 269 00ea 9A42     		cmp	r2, r3
 270 00ec 16D1     		bne	.L20
 268:.\BLEApplications.c ****                 RGBledData[RED_INDEX] = wrReqParam->handleValPair.value.val[RED_INDEX];
 271              		.loc 1 268 0
 272 00ee FB68     		ldr	r3, [r7, #12]
 273 00f0 5B68     		ldr	r3, [r3, #4]
 274 00f2 1A78     		ldrb	r2, [r3]
 275 00f4 164B     		ldr	r3, .L21+24
 276 00f6 1A70     		strb	r2, [r3]
 269:.\BLEApplications.c ****                 RGBledData[GREEN_INDEX] = wrReqParam->handleValPair.value.val[GREEN_INDEX];
 277              		.loc 1 269 0
 278 00f8 FB68     		ldr	r3, [r7, #12]
 279 00fa 5B68     		ldr	r3, [r3, #4]
 280 00fc 5A78     		ldrb	r2, [r3, #1]
 281 00fe 144B     		ldr	r3, .L21+24
 282 0100 5A70     		strb	r2, [r3, #1]
 270:.\BLEApplications.c ****                 RGBledData[BLUE_INDEX] = wrReqParam->handleValPair.value.val[BLUE_INDEX];
 283              		.loc 1 270 0
 284 0102 FB68     		ldr	r3, [r7, #12]
 285 0104 5B68     		ldr	r3, [r3, #4]
 286 0106 9A78     		ldrb	r2, [r3, #2]
 287 0108 114B     		ldr	r3, .L21+24
 288 010a 9A70     		strb	r2, [r3, #2]
 271:.\BLEApplications.c ****                 RGBledData[INTENSITY_INDEX] = wrReqParam->handleValPair.value.val[INTENSITY_INDEX];
 289              		.loc 1 271 0
 290 010c FB68     		ldr	r3, [r7, #12]
 291 010e 5B68     		ldr	r3, [r3, #4]
 292 0110 DA78     		ldrb	r2, [r3, #3]
 293 0112 0F4B     		ldr	r3, .L21+24
 294 0114 DA70     		strb	r2, [r3, #3]
 275:.\BLEApplications.c ****                 UpdateRGBled();
ARM GAS  C:\Users\Admin\AppData\Local\Temp\ccWDB4su.s 			page 12


 295              		.loc 1 275 0
 296 0116 FFF7FEFF 		bl	UpdateRGBled
 277:.\BLEApplications.c ****             break;
 297              		.loc 1 277 0
 298 011a 09E0     		b	.L4
 299              	.L20:
 300 011c 08E0     		b	.L4
 301              	.L15:
 281:.\BLEApplications.c ****             	isConnectionUpdateRequested = FALSE;
 302              		.loc 1 281 0
 303 011e 0D4B     		ldr	r3, .L21+28
 304 0120 0022     		mov	r2, #0
 305 0122 1A70     		strb	r2, [r3]
 282:.\BLEApplications.c ****             break;
 306              		.loc 1 282 0
 307 0124 04E0     		b	.L4
 308              	.L8:
 290:.\BLEApplications.c ****             busyStatus = * (uint8*)eventParam;
 309              		.loc 1 290 0
 310 0126 3B68     		ldr	r3, [r7]
 311 0128 1A78     		ldrb	r2, [r3]
 312 012a 0C4B     		ldr	r3, .L21+36
 313 012c 1A70     		strb	r2, [r3]
 291:.\BLEApplications.c ****             break;
 314              		.loc 1 291 0
 315 012e C046     		mov	r8, r8
 316              	.L4:
 296:.\BLEApplications.c **** 	} /* switch(event)*/
 297:.\BLEApplications.c **** }
 317              		.loc 1 297 0
 318 0130 BD46     		mov	sp, r7
 319 0132 04B0     		add	sp, sp, #16
 320              		@ sp needed
 321 0134 80BD     		pop	{r7, pc}
 322              	.L22:
 323 0136 C046     		.align	2
 324              	.L21:
 325 0138 00000000 		.word	restartAdvertisement
 326 013c 00000000 		.word	cyBle_state
 327 0140 00000000 		.word	connectionHandle
 328 0144 00000000 		.word	deviceConnected
 329 0148 00000000 		.word	startNotification
 330 014c 00000000 		.word	updateNotificationCCCAttribute
 331 0150 00000000 		.word	RGBledData
 332 0154 00000000 		.word	isConnectionUpdateRequested
 333 0158 00000000 		.word	cyBle_customs
 334 015c 00000000 		.word	busyStatus
 335              		.cfi_endproc
 336              	.LFE36:
 337              		.size	CustomEventHandler, .-CustomEventHandler
 338              		.section	.text.SendDataOverFreqCounterNotification,"ax",%progbits
 339              		.align	2
 340              		.global	SendDataOverFreqCounterNotification
 341              		.code	16
 342              		.thumb_func
 343              		.type	SendDataOverFreqCounterNotification, %function
 344              	SendDataOverFreqCounterNotification:
ARM GAS  C:\Users\Admin\AppData\Local\Temp\ccWDB4su.s 			page 13


 345              	.LFB37:
 298:.\BLEApplications.c **** 
 299:.\BLEApplications.c **** /*******************************************************************************
 300:.\BLEApplications.c **** * Function Name: SendDataOverFreqCounterNotification
 301:.\BLEApplications.c **** ********************************************************************************
 302:.\BLEApplications.c **** * Summary:
 303:.\BLEApplications.c **** *   Update the data handle for notification and report it to BLE so that
 304:.\BLEApplications.c **** *	data can be sent over notifications
 305:.\BLEApplications.c **** *
 306:.\BLEApplications.c **** * Parameters:
 307:.\BLEApplications.c **** *  Frequency_Ptr: Pointer to the first byte of the array where frequency value 
 308:.\BLEApplications.c **** *  is stored.
 309:.\BLEApplications.c **** *
 310:.\BLEApplications.c **** * Return:
 311:.\BLEApplications.c **** *  void
 312:.\BLEApplications.c **** *
 313:.\BLEApplications.c **** *******************************************************************************/
 314:.\BLEApplications.c **** void SendDataOverFreqCounterNotification(uint8* Frequency_Ptr)
 315:.\BLEApplications.c **** {
 346              		.loc 1 315 0
 347              		.cfi_startproc
 348 0000 80B5     		push	{r7, lr}
 349              		.cfi_def_cfa_offset 8
 350              		.cfi_offset 7, -8
 351              		.cfi_offset 14, -4
 352 0002 86B0     		sub	sp, sp, #24
 353              		.cfi_def_cfa_offset 32
 354 0004 00AF     		add	r7, sp, #0
 355              		.cfi_def_cfa_register 7
 356 0006 7860     		str	r0, [r7, #4]
 316:.\BLEApplications.c **** 	/* 'notificationHandle' is handle to store notification data parameters */
 317:.\BLEApplications.c **** 	CYBLE_GATTS_HANDLE_VALUE_NTF_T		notificationHandle; 
 318:.\BLEApplications.c **** 	
 319:.\BLEApplications.c **** 	/* If stack is not busy, then send the notification */
 320:.\BLEApplications.c **** 	if(busyStatus == CYBLE_STACK_STATE_FREE)
 357              		.loc 1 320 0
 358 0008 0F4B     		ldr	r3, .L27
 359 000a 1B78     		ldrb	r3, [r3]
 360 000c 002B     		cmp	r3, #0
 361 000e 17D1     		bne	.L23
 321:.\BLEApplications.c **** 	{
 322:.\BLEApplications.c ****         while (RGBledData[RED_INDEX]==0xff){
 362              		.loc 1 322 0
 363 0010 12E0     		b	.L25
 364              	.L26:
 323:.\BLEApplications.c **** 		/* Update Notification handle with frequency data*/
 324:.\BLEApplications.c **** 		notificationHandle.attrHandle = CYBLE_PSOC4_FREQ_MEASUREMENT_FREQ_MEASUREMENT_CHAR_HANDLE;				
 365              		.loc 1 324 0
 366 0012 3B1C     		mov	r3, r7
 367 0014 0C33     		add	r3, r3, #12
 368 0016 0E22     		mov	r2, #14
 369 0018 1A81     		strh	r2, [r3, #8]
 325:.\BLEApplications.c **** 		notificationHandle.value.val = Frequency_Ptr;
 370              		.loc 1 325 0
 371 001a 3B1C     		mov	r3, r7
 372 001c 0C33     		add	r3, r3, #12
 373 001e 7A68     		ldr	r2, [r7, #4]
ARM GAS  C:\Users\Admin\AppData\Local\Temp\ccWDB4su.s 			page 14


 374 0020 1A60     		str	r2, [r3]
 326:.\BLEApplications.c **** 		notificationHandle.value.len = FREQUENCY_NOTIFICATION_DATA_LEN;
 375              		.loc 1 326 0
 376 0022 3B1C     		mov	r3, r7
 377 0024 0C33     		add	r3, r3, #12
 378 0026 0A22     		mov	r2, #10
 379 0028 9A80     		strh	r2, [r3, #4]
 327:.\BLEApplications.c **** 		
 328:.\BLEApplications.c **** 		/* Report data to BLE component for sending data by notifications*/
 329:.\BLEApplications.c **** 		CyBle_GattsNotification(connectionHandle,&notificationHandle);
 380              		.loc 1 329 0
 381 002a 084B     		ldr	r3, .L27+4
 382 002c 3A1C     		mov	r2, r7
 383 002e 0C32     		add	r2, r2, #12
 384 0030 1868     		ldr	r0, [r3]
 385 0032 111C     		mov	r1, r2
 386 0034 FFF7FEFF 		bl	CyBle_GattsNotification
 387              	.L25:
 322:.\BLEApplications.c ****         while (RGBledData[RED_INDEX]==0xff){
 388              		.loc 1 322 0 discriminator 1
 389 0038 054B     		ldr	r3, .L27+8
 390 003a 1B78     		ldrb	r3, [r3]
 391 003c FF2B     		cmp	r3, #255
 392 003e E8D0     		beq	.L26
 393              	.L23:
 330:.\BLEApplications.c ****         }
 331:.\BLEApplications.c **** 	}
 332:.\BLEApplications.c **** }
 394              		.loc 1 332 0
 395 0040 BD46     		mov	sp, r7
 396 0042 06B0     		add	sp, sp, #24
 397              		@ sp needed
 398 0044 80BD     		pop	{r7, pc}
 399              	.L28:
 400 0046 C046     		.align	2
 401              	.L27:
 402 0048 00000000 		.word	busyStatus
 403 004c 00000000 		.word	connectionHandle
 404 0050 00000000 		.word	RGBledData
 405              		.cfi_endproc
 406              	.LFE37:
 407              		.size	SendDataOverFreqCounterNotification, .-SendDataOverFreqCounterNotification
 408              		.section	.text.UpdateConnectionParam,"ax",%progbits
 409              		.align	2
 410              		.global	UpdateConnectionParam
 411              		.code	16
 412              		.thumb_func
 413              		.type	UpdateConnectionParam, %function
 414              	UpdateConnectionParam:
 415              	.LFB38:
 333:.\BLEApplications.c **** 
 334:.\BLEApplications.c **** /*******************************************************************************
 335:.\BLEApplications.c **** * Function Name: UpdateConnectionParam
 336:.\BLEApplications.c **** ********************************************************************************
 337:.\BLEApplications.c **** * Summary:
 338:.\BLEApplications.c **** *  Send the Connection Update Request to Client device after connection 
 339:.\BLEApplications.c **** *  and modify the connection interval for low power operation.
ARM GAS  C:\Users\Admin\AppData\Local\Temp\ccWDB4su.s 			page 15


 340:.\BLEApplications.c **** *
 341:.\BLEApplications.c **** * Parameters:
 342:.\BLEApplications.c **** *  void
 343:.\BLEApplications.c **** *
 344:.\BLEApplications.c **** * Return:
 345:.\BLEApplications.c **** *  void
 346:.\BLEApplications.c **** *
 347:.\BLEApplications.c **** *******************************************************************************/
 348:.\BLEApplications.c **** void UpdateConnectionParam(void)
 349:.\BLEApplications.c **** {
 416              		.loc 1 349 0
 417              		.cfi_startproc
 418 0000 80B5     		push	{r7, lr}
 419              		.cfi_def_cfa_offset 8
 420              		.cfi_offset 7, -8
 421              		.cfi_offset 14, -4
 422 0002 00AF     		add	r7, sp, #0
 423              		.cfi_def_cfa_register 7
 350:.\BLEApplications.c **** 	/* If device is connected and Update connection parameter not updated yet,
 351:.\BLEApplications.c **** 	* then send the Connection Parameter Update request to Client. */
 352:.\BLEApplications.c ****     if(deviceConnected && isConnectionUpdateRequested)
 424              		.loc 1 352 0
 425 0004 094B     		ldr	r3, .L31
 426 0006 1B78     		ldrb	r3, [r3]
 427 0008 002B     		cmp	r3, #0
 428 000a 0DD0     		beq	.L29
 429              		.loc 1 352 0 is_stmt 0 discriminator 1
 430 000c 084B     		ldr	r3, .L31+4
 431 000e 1B78     		ldrb	r3, [r3]
 432 0010 002B     		cmp	r3, #0
 433 0012 09D0     		beq	.L29
 353:.\BLEApplications.c **** 	{
 354:.\BLEApplications.c **** 		/* Reset the flag to indicate that connection Update request has been sent */
 355:.\BLEApplications.c **** 		isConnectionUpdateRequested = FALSE;
 434              		.loc 1 355 0 is_stmt 1
 435 0014 064B     		ldr	r3, .L31+4
 436 0016 0022     		mov	r2, #0
 437 0018 1A70     		strb	r2, [r3]
 356:.\BLEApplications.c **** 		
 357:.\BLEApplications.c **** 		/* Send Connection Update request with set Parameter */
 358:.\BLEApplications.c **** 		CyBle_L2capLeConnectionParamUpdateRequest(connectionHandle.bdHandle, &ConnectionParam);
 438              		.loc 1 358 0
 439 001a 064B     		ldr	r3, .L31+8
 440 001c 1A78     		ldrb	r2, [r3]
 441 001e 064B     		ldr	r3, .L31+12
 442 0020 101C     		mov	r0, r2
 443 0022 191C     		mov	r1, r3
 444 0024 FFF7FEFF 		bl	CyBle_L2capLeConnectionParamUpdateRequest
 445              	.L29:
 359:.\BLEApplications.c **** 	}
 360:.\BLEApplications.c **** }
 446              		.loc 1 360 0
 447 0028 BD46     		mov	sp, r7
 448              		@ sp needed
 449 002a 80BD     		pop	{r7, pc}
 450              	.L32:
 451              		.align	2
ARM GAS  C:\Users\Admin\AppData\Local\Temp\ccWDB4su.s 			page 16


 452              	.L31:
 453 002c 00000000 		.word	deviceConnected
 454 0030 00000000 		.word	isConnectionUpdateRequested
 455 0034 00000000 		.word	connectionHandle
 456 0038 04000000 		.word	ConnectionParam
 457              		.cfi_endproc
 458              	.LFE38:
 459              		.size	UpdateConnectionParam, .-UpdateConnectionParam
 460              		.section	.text.UpdateNotificationCCCD,"ax",%progbits
 461              		.align	2
 462              		.global	UpdateNotificationCCCD
 463              		.code	16
 464              		.thumb_func
 465              		.type	UpdateNotificationCCCD, %function
 466              	UpdateNotificationCCCD:
 467              	.LFB39:
 361:.\BLEApplications.c **** 
 362:.\BLEApplications.c **** /*******************************************************************************
 363:.\BLEApplications.c **** * Function Name: UpdateNotificationCCCD
 364:.\BLEApplications.c **** ********************************************************************************
 365:.\BLEApplications.c **** * Summary:
 366:.\BLEApplications.c **** *  Update the data handle for notification status and report it to BLE 
 367:.\BLEApplications.c **** *  component so that it can be read by Central device.
 368:.\BLEApplications.c **** *
 369:.\BLEApplications.c **** * Parameters:
 370:.\BLEApplications.c **** *  void
 371:.\BLEApplications.c **** *
 372:.\BLEApplications.c **** * Return:
 373:.\BLEApplications.c **** *  void
 374:.\BLEApplications.c **** *
 375:.\BLEApplications.c **** *******************************************************************************/
 376:.\BLEApplications.c **** void UpdateNotificationCCCD(void)
 377:.\BLEApplications.c **** {
 468              		.loc 1 377 0
 469              		.cfi_startproc
 470 0000 80B5     		push	{r7, lr}
 471              		.cfi_def_cfa_offset 8
 472              		.cfi_offset 7, -8
 473              		.cfi_offset 14, -4
 474 0002 84B0     		sub	sp, sp, #16
 475              		.cfi_def_cfa_offset 24
 476 0004 00AF     		add	r7, sp, #0
 477              		.cfi_def_cfa_register 7
 378:.\BLEApplications.c **** 	/* Local variable to store the current CCCD value */
 379:.\BLEApplications.c **** 	uint8 CCCDvalue[2];
 380:.\BLEApplications.c **** 	
 381:.\BLEApplications.c **** 	/* Handle value to update the CCCD */
 382:.\BLEApplications.c **** 	CYBLE_GATT_HANDLE_VALUE_PAIR_T notificationCCCDhandle;
 383:.\BLEApplications.c **** 
 384:.\BLEApplications.c **** 	/* Update notification attribute only when there has been change */
 385:.\BLEApplications.c **** 	if(updateNotificationCCCAttribute)
 478              		.loc 1 385 0
 479 0006 124B     		ldr	r3, .L35
 480 0008 1B78     		ldrb	r3, [r3]
 481 000a 002B     		cmp	r3, #0
 482 000c 1DD0     		beq	.L33
 386:.\BLEApplications.c **** 	{
ARM GAS  C:\Users\Admin\AppData\Local\Temp\ccWDB4su.s 			page 17


 387:.\BLEApplications.c **** 		updateNotificationCCCAttribute = FALSE;
 483              		.loc 1 387 0
 484 000e 104B     		ldr	r3, .L35
 485 0010 0022     		mov	r2, #0
 486 0012 1A70     		strb	r2, [r3]
 388:.\BLEApplications.c **** 	
 389:.\BLEApplications.c **** 		/* Write the present notification status to the local variable */
 390:.\BLEApplications.c **** 		CCCDvalue[0] = startNotification;
 487              		.loc 1 390 0
 488 0014 0F4B     		ldr	r3, .L35+4
 489 0016 1A78     		ldrb	r2, [r3]
 490 0018 3B1C     		mov	r3, r7
 491 001a 0C33     		add	r3, r3, #12
 492 001c 1A70     		strb	r2, [r3]
 391:.\BLEApplications.c **** 		CCCDvalue[1] = 0x00;
 493              		.loc 1 391 0
 494 001e 3B1C     		mov	r3, r7
 495 0020 0C33     		add	r3, r3, #12
 496 0022 0022     		mov	r2, #0
 497 0024 5A70     		strb	r2, [r3, #1]
 392:.\BLEApplications.c **** 		
 393:.\BLEApplications.c **** 		/* Update CCCD handle with notification status data*/
 394:.\BLEApplications.c **** 		notificationCCCDhandle.attrHandle = CYBLE_PSOC4_FREQ_MEASUREMENT_FREQ_MEASUREMENT_CLIENT_CHARACTE
 498              		.loc 1 394 0
 499 0026 3B1C     		mov	r3, r7
 500 0028 0F22     		mov	r2, #15
 501 002a 1A81     		strh	r2, [r3, #8]
 395:.\BLEApplications.c **** 		notificationCCCDhandle.value.val = CCCDvalue;
 502              		.loc 1 395 0
 503 002c 3B1C     		mov	r3, r7
 504 002e 3A1C     		mov	r2, r7
 505 0030 0C32     		add	r2, r2, #12
 506 0032 1A60     		str	r2, [r3]
 396:.\BLEApplications.c **** 		notificationCCCDhandle.value.len = CCC_DATA_LEN;
 507              		.loc 1 396 0
 508 0034 3B1C     		mov	r3, r7
 509 0036 0222     		mov	r2, #2
 510 0038 9A80     		strh	r2, [r3, #4]
 397:.\BLEApplications.c **** 		
 398:.\BLEApplications.c **** 		/* Report data to BLE component for sending data when read by Central device */
 399:.\BLEApplications.c **** 		CyBle_GattsWriteAttributeValue(&notificationCCCDhandle, ZERO, &connectionHandle, CYBLE_GATT_DB_LO
 511              		.loc 1 399 0
 512 003a 3A1C     		mov	r2, r7
 513 003c 064B     		ldr	r3, .L35+8
 514 003e 101C     		mov	r0, r2
 515 0040 0021     		mov	r1, #0
 516 0042 1A1C     		mov	r2, r3
 517 0044 0023     		mov	r3, #0
 518 0046 FFF7FEFF 		bl	CyBle_GattsWriteAttributeValue
 519              	.L33:
 400:.\BLEApplications.c **** 	}	
 401:.\BLEApplications.c **** }
 520              		.loc 1 401 0
 521 004a BD46     		mov	sp, r7
 522 004c 04B0     		add	sp, sp, #16
 523              		@ sp needed
 524 004e 80BD     		pop	{r7, pc}
ARM GAS  C:\Users\Admin\AppData\Local\Temp\ccWDB4su.s 			page 18


 525              	.L36:
 526              		.align	2
 527              	.L35:
 528 0050 00000000 		.word	updateNotificationCCCAttribute
 529 0054 00000000 		.word	startNotification
 530 0058 00000000 		.word	connectionHandle
 531              		.cfi_endproc
 532              	.LFE39:
 533              		.size	UpdateNotificationCCCD, .-UpdateNotificationCCCD
 534              		.global	__aeabi_idiv
 535              		.section	.text.UpdateRGBled,"ax",%progbits
 536              		.align	2
 537              		.global	UpdateRGBled
 538              		.code	16
 539              		.thumb_func
 540              		.type	UpdateRGBled, %function
 541              	UpdateRGBled:
 542              	.LFB40:
 402:.\BLEApplications.c **** 
 403:.\BLEApplications.c **** /*******************************************************************************
 404:.\BLEApplications.c **** * Function Name: UpdateRGBled
 405:.\BLEApplications.c **** ********************************************************************************
 406:.\BLEApplications.c **** * Summary:
 407:.\BLEApplications.c **** * Receive the new RGB data and modify PrISM parameters. Also, update the
 408:.\BLEApplications.c **** * read characteristic handle so that the next read from the BLE central device
 409:.\BLEApplications.c **** * gives present RGB color and intensity data.
 410:.\BLEApplications.c **** *
 411:.\BLEApplications.c **** * Parameters:
 412:.\BLEApplications.c **** *  void
 413:.\BLEApplications.c **** *
 414:.\BLEApplications.c **** * Return:
 415:.\BLEApplications.c **** *  void
 416:.\BLEApplications.c **** *
 417:.\BLEApplications.c **** *******************************************************************************/
 418:.\BLEApplications.c **** void UpdateRGBled(void)
 419:.\BLEApplications.c **** {
 543              		.loc 1 419 0
 544              		.cfi_startproc
 545 0000 80B5     		push	{r7, lr}
 546              		.cfi_def_cfa_offset 8
 547              		.cfi_offset 7, -8
 548              		.cfi_offset 14, -4
 549 0002 82B0     		sub	sp, sp, #8
 550              		.cfi_def_cfa_offset 16
 551 0004 00AF     		add	r7, sp, #0
 552              		.cfi_def_cfa_register 7
 420:.\BLEApplications.c **** 	/* Local variables to calculate the color components from RGB received data*/
 421:.\BLEApplications.c **** 	uint8 debug_red;
 422:.\BLEApplications.c **** 	uint8 debug_green;
 423:.\BLEApplications.c **** 	uint8 debug_blue;
 424:.\BLEApplications.c **** 	uint8 intensity_divide_value = RGBledData[INTENSITY_INDEX];
 553              		.loc 1 424 0
 554 0006 FB1D     		add	r3, r7, #7
 555 0008 2A4A     		ldr	r2, .L38
 556 000a D278     		ldrb	r2, [r2, #3]
 557 000c 1A70     		strb	r2, [r3]
 425:.\BLEApplications.c **** 	
ARM GAS  C:\Users\Admin\AppData\Local\Temp\ccWDB4su.s 			page 19


 426:.\BLEApplications.c **** 	debug_red = (uint8)(((uint16)RGBledData[RED_INDEX] * intensity_divide_value) / 255);
 558              		.loc 1 426 0
 559 000e 294B     		ldr	r3, .L38
 560 0010 1B78     		ldrb	r3, [r3]
 561 0012 FA1D     		add	r2, r7, #7
 562 0014 1278     		ldrb	r2, [r2]
 563 0016 5343     		mul	r3, r2
 564 0018 181C     		mov	r0, r3
 565 001a FF21     		mov	r1, #255
 566 001c FFF7FEFF 		bl	__aeabi_idiv
 567 0020 031C     		mov	r3, r0
 568 0022 1A1C     		mov	r2, r3
 569 0024 BB1D     		add	r3, r7, #6
 570 0026 1A70     		strb	r2, [r3]
 427:.\BLEApplications.c **** 	debug_green = (uint8)(((uint16)RGBledData[GREEN_INDEX] * intensity_divide_value) / 255);
 571              		.loc 1 427 0
 572 0028 224B     		ldr	r3, .L38
 573 002a 5B78     		ldrb	r3, [r3, #1]
 574 002c FA1D     		add	r2, r7, #7
 575 002e 1278     		ldrb	r2, [r2]
 576 0030 5343     		mul	r3, r2
 577 0032 181C     		mov	r0, r3
 578 0034 FF21     		mov	r1, #255
 579 0036 FFF7FEFF 		bl	__aeabi_idiv
 580 003a 031C     		mov	r3, r0
 581 003c 1A1C     		mov	r2, r3
 582 003e 7B1D     		add	r3, r7, #5
 583 0040 1A70     		strb	r2, [r3]
 428:.\BLEApplications.c **** 	debug_blue = (uint8)(((uint16)RGBledData[BLUE_INDEX] * intensity_divide_value) / 255);
 584              		.loc 1 428 0
 585 0042 1C4B     		ldr	r3, .L38
 586 0044 9B78     		ldrb	r3, [r3, #2]
 587 0046 FA1D     		add	r2, r7, #7
 588 0048 1278     		ldrb	r2, [r2]
 589 004a 5343     		mul	r3, r2
 590 004c 181C     		mov	r0, r3
 591 004e FF21     		mov	r1, #255
 592 0050 FFF7FEFF 		bl	__aeabi_idiv
 593 0054 031C     		mov	r3, r0
 594 0056 1A1C     		mov	r2, r3
 595 0058 3B1D     		add	r3, r7, #4
 596 005a 1A70     		strb	r2, [r3]
 429:.\BLEApplications.c **** 	
 430:.\BLEApplications.c **** 	/* Update the density value of the PrISM module for color control*/
 431:.\BLEApplications.c **** 	PRS_1_WritePulse0(RGB_LED_MAX_VAL - debug_red);
 597              		.loc 1 431 0
 598 005c BB1D     		add	r3, r7, #6
 599 005e 1B78     		ldrb	r3, [r3]
 600 0060 DB43     		mvn	r3, r3
 601 0062 DBB2     		uxtb	r3, r3
 602 0064 181C     		mov	r0, r3
 603 0066 FFF7FEFF 		bl	PRS_1_WritePulse0
 432:.\BLEApplications.c ****     PRS_1_WritePulse1(RGB_LED_MAX_VAL - debug_green);
 604              		.loc 1 432 0
 605 006a 7B1D     		add	r3, r7, #5
 606 006c 1B78     		ldrb	r3, [r3]
 607 006e DB43     		mvn	r3, r3
ARM GAS  C:\Users\Admin\AppData\Local\Temp\ccWDB4su.s 			page 20


 608 0070 DBB2     		uxtb	r3, r3
 609 0072 181C     		mov	r0, r3
 610 0074 FFF7FEFF 		bl	PRS_1_WritePulse1
 433:.\BLEApplications.c ****     PRS_2_WritePulse0(RGB_LED_MAX_VAL - debug_blue);
 611              		.loc 1 433 0
 612 0078 3B1D     		add	r3, r7, #4
 613 007a 1B78     		ldrb	r3, [r3]
 614 007c DB43     		mvn	r3, r3
 615 007e DBB2     		uxtb	r3, r3
 616 0080 181C     		mov	r0, r3
 617 0082 FFF7FEFF 		bl	PRS_2_WritePulse0
 434:.\BLEApplications.c **** 	
 435:.\BLEApplications.c **** 	/* Update RGB control handle with new values */
 436:.\BLEApplications.c **** 	rgbHandle.attrHandle = RGB_LED_CHAR_HANDLE;
 618              		.loc 1 436 0
 619 0086 0C4B     		ldr	r3, .L38+4
 620 0088 1322     		mov	r2, #19
 621 008a 1A81     		strh	r2, [r3, #8]
 437:.\BLEApplications.c **** 	rgbHandle.value.val = RGBledData;
 622              		.loc 1 437 0
 623 008c 0A4B     		ldr	r3, .L38+4
 624 008e 094A     		ldr	r2, .L38
 625 0090 1A60     		str	r2, [r3]
 438:.\BLEApplications.c **** 	rgbHandle.value.len = RGB_CHAR_DATA_LEN;
 626              		.loc 1 438 0
 627 0092 094B     		ldr	r3, .L38+4
 628 0094 0422     		mov	r2, #4
 629 0096 9A80     		strh	r2, [r3, #4]
 439:.\BLEApplications.c **** 	rgbHandle.value.actualLen = RGB_CHAR_DATA_LEN;
 630              		.loc 1 439 0
 631 0098 074B     		ldr	r3, .L38+4
 632 009a 0422     		mov	r2, #4
 633 009c DA80     		strh	r2, [r3, #6]
 440:.\BLEApplications.c **** 	
 441:.\BLEApplications.c **** 	/* Send updated RGB control handle as attribute for read by central device */
 442:.\BLEApplications.c **** 	CyBle_GattsWriteAttributeValue(&rgbHandle, FALSE, &cyBle_connHandle, FALSE);  
 634              		.loc 1 442 0
 635 009e 064A     		ldr	r2, .L38+4
 636 00a0 064B     		ldr	r3, .L38+8
 637 00a2 101C     		mov	r0, r2
 638 00a4 0021     		mov	r1, #0
 639 00a6 1A1C     		mov	r2, r3
 640 00a8 0023     		mov	r3, #0
 641 00aa FFF7FEFF 		bl	CyBle_GattsWriteAttributeValue
 443:.\BLEApplications.c **** }
 642              		.loc 1 443 0
 643 00ae BD46     		mov	sp, r7
 644 00b0 02B0     		add	sp, sp, #8
 645              		@ sp needed
 646 00b2 80BD     		pop	{r7, pc}
 647              	.L39:
 648              		.align	2
 649              	.L38:
 650 00b4 00000000 		.word	RGBledData
 651 00b8 00000000 		.word	rgbHandle
 652 00bc 00000000 		.word	cyBle_connHandle
 653              		.cfi_endproc
ARM GAS  C:\Users\Admin\AppData\Local\Temp\ccWDB4su.s 			page 21


 654              	.LFE40:
 655              		.size	UpdateRGBled, .-UpdateRGBled
 656              		.text
 657              	.Letext0:
 658              		.file 2 ".\\Generated_Source\\PSoC4/cytypes.h"
 659              		.file 3 ".\\Generated_Source\\PSoC4/BLE_StackGap.h"
 660              		.file 4 ".\\Generated_Source\\PSoC4/BLE_StackGatt.h"
 661              		.file 5 ".\\Generated_Source\\PSoC4/BLE_StackGattServer.h"
 662              		.file 6 ".\\Generated_Source\\PSoC4/BLE_custom.h"
 663              		.file 7 ".\\Generated_Source\\PSoC4/BLE_Stack.h"
 664              		.file 8 ".\\Generated_Source\\PSoC4/BLE_eventHandler.h"
 665              		.file 9 ".\\BLEApplications.h"