ARM GAS  C:\Users\Admin\AppData\Local\Temp\ccyrMX0g.s 			page 1


   1              		.cpu cortex-m0
   2              		.fpu softvfp
   3              		.eabi_attribute 20, 1
   4              		.eabi_attribute 21, 1
   5              		.eabi_attribute 23, 3
   6              		.eabi_attribute 24, 1
   7              		.eabi_attribute 25, 1
   8              		.eabi_attribute 26, 1
   9              		.eabi_attribute 30, 6
  10              		.eabi_attribute 34, 0
  11              		.eabi_attribute 18, 4
  12              		.code	16
  13              		.file	"cyfitter_cfg.c"
  14              		.text
  15              	.Ltext0:
  16              		.cfi_sections	.debug_frame
  17              		.section	.text.CYMEMZERO,"ax",%progbits
  18              		.align	2
  19              		.code	16
  20              		.thumb_func
  21              		.type	CYMEMZERO, %function
  22              	CYMEMZERO:
  23              	.LFB2:
  24              		.file 1 ".\\Generated_Source\\PSoC4\\cyfitter_cfg.c"
   1:.\Generated_Source\PSoC4/cyfitter_cfg.c **** /*******************************************************************************
   2:.\Generated_Source\PSoC4/cyfitter_cfg.c **** * FILENAME: cyfitter_cfg.c
   3:.\Generated_Source\PSoC4/cyfitter_cfg.c **** * PSoC Creator  3.1 SP3
   4:.\Generated_Source\PSoC4/cyfitter_cfg.c **** *
   5:.\Generated_Source\PSoC4/cyfitter_cfg.c **** * Description:
   6:.\Generated_Source\PSoC4/cyfitter_cfg.c **** * This file is automatically generated by PSoC Creator with device 
   7:.\Generated_Source\PSoC4/cyfitter_cfg.c **** * initialization code.  Except for the user defined sections in
   8:.\Generated_Source\PSoC4/cyfitter_cfg.c **** * CyClockStartupError(), this file should not be modified.
   9:.\Generated_Source\PSoC4/cyfitter_cfg.c **** *
  10:.\Generated_Source\PSoC4/cyfitter_cfg.c **** ********************************************************************************
  11:.\Generated_Source\PSoC4/cyfitter_cfg.c **** * Copyright 2013, Cypress Semiconductor Corporation.  All rights reserved.
  12:.\Generated_Source\PSoC4/cyfitter_cfg.c **** * You may use this file only in accordance with the license, terms, conditions, 
  13:.\Generated_Source\PSoC4/cyfitter_cfg.c **** * disclaimers, and limitations in the end user license agreement accompanying 
  14:.\Generated_Source\PSoC4/cyfitter_cfg.c **** * the software package with which this file was provided.
  15:.\Generated_Source\PSoC4/cyfitter_cfg.c **** ********************************************************************************/
  16:.\Generated_Source\PSoC4/cyfitter_cfg.c **** 
  17:.\Generated_Source\PSoC4/cyfitter_cfg.c **** #include <string.h>
  18:.\Generated_Source\PSoC4/cyfitter_cfg.c **** #include <cytypes.h>
  19:.\Generated_Source\PSoC4/cyfitter_cfg.c **** #include <cydevice_trm.h>
  20:.\Generated_Source\PSoC4/cyfitter_cfg.c **** #include <cyfitter.h>
  21:.\Generated_Source\PSoC4/cyfitter_cfg.c **** #include <CyLib.h>
  22:.\Generated_Source\PSoC4/cyfitter_cfg.c **** #include <cyfitter_cfg.h>
  23:.\Generated_Source\PSoC4/cyfitter_cfg.c **** 
  24:.\Generated_Source\PSoC4/cyfitter_cfg.c **** #define CY_NEED_CYCLOCKSTARTUPERROR 1
  25:.\Generated_Source\PSoC4/cyfitter_cfg.c **** 
  26:.\Generated_Source\PSoC4/cyfitter_cfg.c **** 
  27:.\Generated_Source\PSoC4/cyfitter_cfg.c **** #if defined(__GNUC__) || defined(__ARMCC_VERSION)
  28:.\Generated_Source\PSoC4/cyfitter_cfg.c ****     #define CYPACKED 
  29:.\Generated_Source\PSoC4/cyfitter_cfg.c ****     #define CYPACKED_ATTR __attribute__ ((packed))
  30:.\Generated_Source\PSoC4/cyfitter_cfg.c ****     #define CYALIGNED __attribute__ ((aligned))
  31:.\Generated_Source\PSoC4/cyfitter_cfg.c ****     #define CY_CFG_UNUSED __attribute__ ((unused))
  32:.\Generated_Source\PSoC4/cyfitter_cfg.c ****     #define CY_CFG_SECTION __attribute__ ((section(".psocinit")))
  33:.\Generated_Source\PSoC4/cyfitter_cfg.c ****     
ARM GAS  C:\Users\Admin\AppData\Local\Temp\ccyrMX0g.s 			page 2


  34:.\Generated_Source\PSoC4/cyfitter_cfg.c ****     #if defined(__ARMCC_VERSION)
  35:.\Generated_Source\PSoC4/cyfitter_cfg.c ****         #define CY_CFG_MEMORY_BARRIER() __memory_changed()
  36:.\Generated_Source\PSoC4/cyfitter_cfg.c ****     #else
  37:.\Generated_Source\PSoC4/cyfitter_cfg.c ****         #define CY_CFG_MEMORY_BARRIER() __sync_synchronize()
  38:.\Generated_Source\PSoC4/cyfitter_cfg.c ****     #endif
  39:.\Generated_Source\PSoC4/cyfitter_cfg.c ****     
  40:.\Generated_Source\PSoC4/cyfitter_cfg.c **** #elif defined(__ICCARM__)
  41:.\Generated_Source\PSoC4/cyfitter_cfg.c ****     #include <intrinsics.h>
  42:.\Generated_Source\PSoC4/cyfitter_cfg.c **** 
  43:.\Generated_Source\PSoC4/cyfitter_cfg.c ****     #define CYPACKED __packed
  44:.\Generated_Source\PSoC4/cyfitter_cfg.c ****     #define CYPACKED_ATTR 
  45:.\Generated_Source\PSoC4/cyfitter_cfg.c ****     #define CYALIGNED _Pragma("data_alignment=4")
  46:.\Generated_Source\PSoC4/cyfitter_cfg.c ****     #define CY_CFG_UNUSED _Pragma("diag_suppress=Pe177")
  47:.\Generated_Source\PSoC4/cyfitter_cfg.c ****     #define CY_CFG_SECTION _Pragma("location=\".psocinit\"")
  48:.\Generated_Source\PSoC4/cyfitter_cfg.c ****     
  49:.\Generated_Source\PSoC4/cyfitter_cfg.c ****     #define CY_CFG_MEMORY_BARRIER() __DMB()
  50:.\Generated_Source\PSoC4/cyfitter_cfg.c ****     
  51:.\Generated_Source\PSoC4/cyfitter_cfg.c **** #else
  52:.\Generated_Source\PSoC4/cyfitter_cfg.c ****     #error Unsupported toolchain
  53:.\Generated_Source\PSoC4/cyfitter_cfg.c **** #endif
  54:.\Generated_Source\PSoC4/cyfitter_cfg.c **** 
  55:.\Generated_Source\PSoC4/cyfitter_cfg.c **** 
  56:.\Generated_Source\PSoC4/cyfitter_cfg.c **** CY_CFG_UNUSED
  57:.\Generated_Source\PSoC4/cyfitter_cfg.c **** static void CYMEMZERO(void *s, size_t n);
  58:.\Generated_Source\PSoC4/cyfitter_cfg.c **** CY_CFG_UNUSED
  59:.\Generated_Source\PSoC4/cyfitter_cfg.c **** static void CYMEMZERO(void *s, size_t n)
  60:.\Generated_Source\PSoC4/cyfitter_cfg.c **** {
  25              		.loc 1 60 0
  26              		.cfi_startproc
  27 0000 80B5     		push	{r7, lr}
  28              		.cfi_def_cfa_offset 8
  29              		.cfi_offset 7, -8
  30              		.cfi_offset 14, -4
  31 0002 82B0     		sub	sp, sp, #8
  32              		.cfi_def_cfa_offset 16
  33 0004 00AF     		add	r7, sp, #0
  34              		.cfi_def_cfa_register 7
  35 0006 7860     		str	r0, [r7, #4]
  36 0008 3960     		str	r1, [r7]
  61:.\Generated_Source\PSoC4/cyfitter_cfg.c **** 	(void)memset(s, 0, n);
  37              		.loc 1 61 0
  38 000a 7A68     		ldr	r2, [r7, #4]
  39 000c 3B68     		ldr	r3, [r7]
  40 000e 101C     		mov	r0, r2
  41 0010 0021     		mov	r1, #0
  42 0012 1A1C     		mov	r2, r3
  43 0014 FFF7FEFF 		bl	memset
  62:.\Generated_Source\PSoC4/cyfitter_cfg.c **** }
  44              		.loc 1 62 0
  45 0018 BD46     		mov	sp, r7
  46 001a 02B0     		add	sp, sp, #8
  47              		@ sp needed
  48 001c 80BD     		pop	{r7, pc}
  49              		.cfi_endproc
  50              	.LFE2:
  51              		.size	CYMEMZERO, .-CYMEMZERO
  52 001e C046     		.section	.text.CYCONFIGCPY,"ax",%progbits
ARM GAS  C:\Users\Admin\AppData\Local\Temp\ccyrMX0g.s 			page 3


  53              		.align	2
  54              		.code	16
  55              		.thumb_func
  56              		.type	CYCONFIGCPY, %function
  57              	CYCONFIGCPY:
  58              	.LFB3:
  63:.\Generated_Source\PSoC4/cyfitter_cfg.c **** CY_CFG_UNUSED
  64:.\Generated_Source\PSoC4/cyfitter_cfg.c **** static void CYCONFIGCPY(void *dest, const void *src, size_t n);
  65:.\Generated_Source\PSoC4/cyfitter_cfg.c **** CY_CFG_UNUSED
  66:.\Generated_Source\PSoC4/cyfitter_cfg.c **** static void CYCONFIGCPY(void *dest, const void *src, size_t n)
  67:.\Generated_Source\PSoC4/cyfitter_cfg.c **** {
  59              		.loc 1 67 0
  60              		.cfi_startproc
  61 0000 80B5     		push	{r7, lr}
  62              		.cfi_def_cfa_offset 8
  63              		.cfi_offset 7, -8
  64              		.cfi_offset 14, -4
  65 0002 84B0     		sub	sp, sp, #16
  66              		.cfi_def_cfa_offset 24
  67 0004 00AF     		add	r7, sp, #0
  68              		.cfi_def_cfa_register 7
  69 0006 F860     		str	r0, [r7, #12]
  70 0008 B960     		str	r1, [r7, #8]
  71 000a 7A60     		str	r2, [r7, #4]
  68:.\Generated_Source\PSoC4/cyfitter_cfg.c **** 	(void)memcpy(dest, src, n);
  72              		.loc 1 68 0
  73 000c F968     		ldr	r1, [r7, #12]
  74 000e BA68     		ldr	r2, [r7, #8]
  75 0010 7B68     		ldr	r3, [r7, #4]
  76 0012 081C     		mov	r0, r1
  77 0014 111C     		mov	r1, r2
  78 0016 1A1C     		mov	r2, r3
  79 0018 FFF7FEFF 		bl	memcpy
  69:.\Generated_Source\PSoC4/cyfitter_cfg.c **** }
  80              		.loc 1 69 0
  81 001c BD46     		mov	sp, r7
  82 001e 04B0     		add	sp, sp, #16
  83              		@ sp needed
  84 0020 80BD     		pop	{r7, pc}
  85              		.cfi_endproc
  86              	.LFE3:
  87              		.size	CYCONFIGCPY, .-CYCONFIGCPY
  88 0022 C046     		.section	.text.CYCONFIGCPYCODE,"ax",%progbits
  89              		.align	2
  90              		.code	16
  91              		.thumb_func
  92              		.type	CYCONFIGCPYCODE, %function
  93              	CYCONFIGCPYCODE:
  94              	.LFB4:
  70:.\Generated_Source\PSoC4/cyfitter_cfg.c **** CY_CFG_UNUSED
  71:.\Generated_Source\PSoC4/cyfitter_cfg.c **** static void CYCONFIGCPYCODE(void *dest, const void *src, size_t n);
  72:.\Generated_Source\PSoC4/cyfitter_cfg.c **** CY_CFG_UNUSED
  73:.\Generated_Source\PSoC4/cyfitter_cfg.c **** static void CYCONFIGCPYCODE(void *dest, const void *src, size_t n)
  74:.\Generated_Source\PSoC4/cyfitter_cfg.c **** {
  95              		.loc 1 74 0
  96              		.cfi_startproc
  97 0000 80B5     		push	{r7, lr}
ARM GAS  C:\Users\Admin\AppData\Local\Temp\ccyrMX0g.s 			page 4


  98              		.cfi_def_cfa_offset 8
  99              		.cfi_offset 7, -8
 100              		.cfi_offset 14, -4
 101 0002 84B0     		sub	sp, sp, #16
 102              		.cfi_def_cfa_offset 24
 103 0004 00AF     		add	r7, sp, #0
 104              		.cfi_def_cfa_register 7
 105 0006 F860     		str	r0, [r7, #12]
 106 0008 B960     		str	r1, [r7, #8]
 107 000a 7A60     		str	r2, [r7, #4]
  75:.\Generated_Source\PSoC4/cyfitter_cfg.c **** 	(void)memcpy(dest, src, n);
 108              		.loc 1 75 0
 109 000c F968     		ldr	r1, [r7, #12]
 110 000e BA68     		ldr	r2, [r7, #8]
 111 0010 7B68     		ldr	r3, [r7, #4]
 112 0012 081C     		mov	r0, r1
 113 0014 111C     		mov	r1, r2
 114 0016 1A1C     		mov	r2, r3
 115 0018 FFF7FEFF 		bl	memcpy
  76:.\Generated_Source\PSoC4/cyfitter_cfg.c **** }
 116              		.loc 1 76 0
 117 001c BD46     		mov	sp, r7
 118 001e 04B0     		add	sp, sp, #16
 119              		@ sp needed
 120 0020 80BD     		pop	{r7, pc}
 121              		.cfi_endproc
 122              	.LFE4:
 123              		.size	CYCONFIGCPYCODE, .-CYCONFIGCPYCODE
 124 0022 C046     		.section	.text.CyClockStartupError,"ax",%progbits
 125              		.align	2
 126              		.code	16
 127              		.thumb_func
 128              		.type	CyClockStartupError, %function
 129              	CyClockStartupError:
 130              	.LFB5:
  77:.\Generated_Source\PSoC4/cyfitter_cfg.c **** 
  78:.\Generated_Source\PSoC4/cyfitter_cfg.c **** 
  79:.\Generated_Source\PSoC4/cyfitter_cfg.c **** 
  80:.\Generated_Source\PSoC4/cyfitter_cfg.c **** /* Clock startup error codes                                                   */
  81:.\Generated_Source\PSoC4/cyfitter_cfg.c **** #define CYCLOCKSTART_NO_ERROR    0u
  82:.\Generated_Source\PSoC4/cyfitter_cfg.c **** #define CYCLOCKSTART_XTAL_ERROR  1u
  83:.\Generated_Source\PSoC4/cyfitter_cfg.c **** #define CYCLOCKSTART_32KHZ_ERROR 2u
  84:.\Generated_Source\PSoC4/cyfitter_cfg.c **** #define CYCLOCKSTART_PLL_ERROR   3u
  85:.\Generated_Source\PSoC4/cyfitter_cfg.c **** 
  86:.\Generated_Source\PSoC4/cyfitter_cfg.c **** #ifdef CY_NEED_CYCLOCKSTARTUPERROR
  87:.\Generated_Source\PSoC4/cyfitter_cfg.c **** /*******************************************************************************
  88:.\Generated_Source\PSoC4/cyfitter_cfg.c **** * Function Name: CyClockStartupError
  89:.\Generated_Source\PSoC4/cyfitter_cfg.c **** ********************************************************************************
  90:.\Generated_Source\PSoC4/cyfitter_cfg.c **** * Summary:
  91:.\Generated_Source\PSoC4/cyfitter_cfg.c **** *  If an error is encountered during clock configuration (crystal startup error,
  92:.\Generated_Source\PSoC4/cyfitter_cfg.c **** *  PLL lock error, etc.), the system will end up here.  Unless reimplemented by
  93:.\Generated_Source\PSoC4/cyfitter_cfg.c **** *  the customer, this function will stop in an infinite loop.
  94:.\Generated_Source\PSoC4/cyfitter_cfg.c **** *
  95:.\Generated_Source\PSoC4/cyfitter_cfg.c **** * Parameters:
  96:.\Generated_Source\PSoC4/cyfitter_cfg.c **** *   void
  97:.\Generated_Source\PSoC4/cyfitter_cfg.c **** *
  98:.\Generated_Source\PSoC4/cyfitter_cfg.c **** * Return:
ARM GAS  C:\Users\Admin\AppData\Local\Temp\ccyrMX0g.s 			page 5


  99:.\Generated_Source\PSoC4/cyfitter_cfg.c **** *   void
 100:.\Generated_Source\PSoC4/cyfitter_cfg.c **** *
 101:.\Generated_Source\PSoC4/cyfitter_cfg.c **** *******************************************************************************/
 102:.\Generated_Source\PSoC4/cyfitter_cfg.c **** CY_CFG_UNUSED
 103:.\Generated_Source\PSoC4/cyfitter_cfg.c **** static void CyClockStartupError(uint8 errorCode);
 104:.\Generated_Source\PSoC4/cyfitter_cfg.c **** CY_CFG_UNUSED
 105:.\Generated_Source\PSoC4/cyfitter_cfg.c **** static void CyClockStartupError(uint8 errorCode)
 106:.\Generated_Source\PSoC4/cyfitter_cfg.c **** {
 131              		.loc 1 106 0
 132              		.cfi_startproc
 133 0000 80B5     		push	{r7, lr}
 134              		.cfi_def_cfa_offset 8
 135              		.cfi_offset 7, -8
 136              		.cfi_offset 14, -4
 137 0002 82B0     		sub	sp, sp, #8
 138              		.cfi_def_cfa_offset 16
 139 0004 00AF     		add	r7, sp, #0
 140              		.cfi_def_cfa_register 7
 141 0006 021C     		mov	r2, r0
 142 0008 FB1D     		add	r3, r7, #7
 143 000a 1A70     		strb	r2, [r3]
 107:.\Generated_Source\PSoC4/cyfitter_cfg.c ****     /* To remove the compiler warning if errorCode not used.                */
 108:.\Generated_Source\PSoC4/cyfitter_cfg.c ****     errorCode = errorCode;
 144              		.loc 1 108 0
 145 000c FB1D     		add	r3, r7, #7
 146 000e FA1D     		add	r2, r7, #7
 147 0010 1278     		ldrb	r2, [r2]
 148 0012 1A70     		strb	r2, [r3]
 149              	.L5:
 109:.\Generated_Source\PSoC4/cyfitter_cfg.c **** 
 110:.\Generated_Source\PSoC4/cyfitter_cfg.c ****     /* `#START CyClockStartupError` */
 111:.\Generated_Source\PSoC4/cyfitter_cfg.c **** 
 112:.\Generated_Source\PSoC4/cyfitter_cfg.c ****     /* If we have a clock startup error (bad MHz crystal, PLL lock, etc.),  */
 113:.\Generated_Source\PSoC4/cyfitter_cfg.c ****     /* we will end up here to allow the customer to implement something to  */
 114:.\Generated_Source\PSoC4/cyfitter_cfg.c ****     /* deal with the clock condition.                                       */
 115:.\Generated_Source\PSoC4/cyfitter_cfg.c **** 
 116:.\Generated_Source\PSoC4/cyfitter_cfg.c ****     /* `#END` */
 117:.\Generated_Source\PSoC4/cyfitter_cfg.c **** 
 118:.\Generated_Source\PSoC4/cyfitter_cfg.c ****     /* If nothing else, stop here since the clocks have not started         */
 119:.\Generated_Source\PSoC4/cyfitter_cfg.c ****     /* correctly.                                                           */
 120:.\Generated_Source\PSoC4/cyfitter_cfg.c ****     while(1) {}
 150              		.loc 1 120 0 discriminator 1
 151 0014 FEE7     		b	.L5
 152              		.cfi_endproc
 153              	.LFE5:
 154              		.size	CyClockStartupError, .-CyClockStartupError
 155 0016 C046     		.section	.text.cfg_write_bytes32,"ax",%progbits
 156              		.align	2
 157              		.code	16
 158              		.thumb_func
 159              		.type	cfg_write_bytes32, %function
 160              	cfg_write_bytes32:
 161              	.LFB6:
 121:.\Generated_Source\PSoC4/cyfitter_cfg.c **** }
 122:.\Generated_Source\PSoC4/cyfitter_cfg.c **** #endif
 123:.\Generated_Source\PSoC4/cyfitter_cfg.c **** 
 124:.\Generated_Source\PSoC4/cyfitter_cfg.c **** #define CY_CFG_BASE_ADDR_COUNT 9u
ARM GAS  C:\Users\Admin\AppData\Local\Temp\ccyrMX0g.s 			page 6


 125:.\Generated_Source\PSoC4/cyfitter_cfg.c **** CYPACKED typedef struct
 126:.\Generated_Source\PSoC4/cyfitter_cfg.c **** {
 127:.\Generated_Source\PSoC4/cyfitter_cfg.c **** 	uint8 offset;
 128:.\Generated_Source\PSoC4/cyfitter_cfg.c **** 	uint8 value;
 129:.\Generated_Source\PSoC4/cyfitter_cfg.c **** } CYPACKED_ATTR cy_cfg_addrvalue_t;
 130:.\Generated_Source\PSoC4/cyfitter_cfg.c **** 
 131:.\Generated_Source\PSoC4/cyfitter_cfg.c **** 
 132:.\Generated_Source\PSoC4/cyfitter_cfg.c **** 
 133:.\Generated_Source\PSoC4/cyfitter_cfg.c **** /*******************************************************************************
 134:.\Generated_Source\PSoC4/cyfitter_cfg.c **** * Function Name: cfg_write_bytes32
 135:.\Generated_Source\PSoC4/cyfitter_cfg.c **** ********************************************************************************
 136:.\Generated_Source\PSoC4/cyfitter_cfg.c **** * Summary:
 137:.\Generated_Source\PSoC4/cyfitter_cfg.c **** *  This function is used for setting up the chip configuration areas that
 138:.\Generated_Source\PSoC4/cyfitter_cfg.c **** *  contain relatively sparse data.
 139:.\Generated_Source\PSoC4/cyfitter_cfg.c **** *
 140:.\Generated_Source\PSoC4/cyfitter_cfg.c **** * Parameters:
 141:.\Generated_Source\PSoC4/cyfitter_cfg.c **** *   void
 142:.\Generated_Source\PSoC4/cyfitter_cfg.c **** *
 143:.\Generated_Source\PSoC4/cyfitter_cfg.c **** * Return:
 144:.\Generated_Source\PSoC4/cyfitter_cfg.c **** *   void
 145:.\Generated_Source\PSoC4/cyfitter_cfg.c **** *
 146:.\Generated_Source\PSoC4/cyfitter_cfg.c **** *******************************************************************************/
 147:.\Generated_Source\PSoC4/cyfitter_cfg.c **** static void cfg_write_bytes32(const uint32 addr_table[], const cy_cfg_addrvalue_t data_table[]);
 148:.\Generated_Source\PSoC4/cyfitter_cfg.c **** static void cfg_write_bytes32(const uint32 addr_table[], const cy_cfg_addrvalue_t data_table[])
 149:.\Generated_Source\PSoC4/cyfitter_cfg.c **** {
 162              		.loc 1 149 0
 163              		.cfi_startproc
 164 0000 80B5     		push	{r7, lr}
 165              		.cfi_def_cfa_offset 8
 166              		.cfi_offset 7, -8
 167              		.cfi_offset 14, -4
 168 0002 86B0     		sub	sp, sp, #24
 169              		.cfi_def_cfa_offset 32
 170 0004 00AF     		add	r7, sp, #0
 171              		.cfi_def_cfa_register 7
 172 0006 7860     		str	r0, [r7, #4]
 173 0008 3960     		str	r1, [r7]
 150:.\Generated_Source\PSoC4/cyfitter_cfg.c **** 	/* For 32-bit little-endian architectures */
 151:.\Generated_Source\PSoC4/cyfitter_cfg.c **** 	uint32 i, j = 0u;
 174              		.loc 1 151 0
 175 000a 0023     		mov	r3, #0
 176 000c 3B61     		str	r3, [r7, #16]
 152:.\Generated_Source\PSoC4/cyfitter_cfg.c **** 	for (i = 0u; i < CY_CFG_BASE_ADDR_COUNT; i++)
 177              		.loc 1 152 0
 178 000e 0023     		mov	r3, #0
 179 0010 7B61     		str	r3, [r7, #20]
 180 0012 2EE0     		b	.L7
 181              	.L10:
 182              	.LBB2:
 153:.\Generated_Source\PSoC4/cyfitter_cfg.c **** 	{
 154:.\Generated_Source\PSoC4/cyfitter_cfg.c **** 		uint32 baseAddr = addr_table[i];
 183              		.loc 1 154 0
 184 0014 7B69     		ldr	r3, [r7, #20]
 185 0016 9B00     		lsl	r3, r3, #2
 186 0018 7A68     		ldr	r2, [r7, #4]
 187 001a D318     		add	r3, r2, r3
 188 001c 1B68     		ldr	r3, [r3]
ARM GAS  C:\Users\Admin\AppData\Local\Temp\ccyrMX0g.s 			page 7


 189 001e BB60     		str	r3, [r7, #8]
 155:.\Generated_Source\PSoC4/cyfitter_cfg.c **** 		uint8 count = (uint8)baseAddr;
 190              		.loc 1 155 0
 191 0020 3B1C     		mov	r3, r7
 192 0022 0F33     		add	r3, r3, #15
 193 0024 BA68     		ldr	r2, [r7, #8]
 194 0026 1A70     		strb	r2, [r3]
 156:.\Generated_Source\PSoC4/cyfitter_cfg.c **** 		baseAddr &= 0xFFFFFF00u;
 195              		.loc 1 156 0
 196 0028 BB68     		ldr	r3, [r7, #8]
 197 002a FF22     		mov	r2, #255
 198 002c 9343     		bic	r3, r2
 199 002e BB60     		str	r3, [r7, #8]
 157:.\Generated_Source\PSoC4/cyfitter_cfg.c **** 		while (count != 0u)
 200              		.loc 1 157 0
 201 0030 17E0     		b	.L8
 202              	.L9:
 158:.\Generated_Source\PSoC4/cyfitter_cfg.c **** 		{
 159:.\Generated_Source\PSoC4/cyfitter_cfg.c **** 			CY_SET_XTND_REG8((void CYFAR *)(baseAddr + data_table[j].offset), data_table[j].value);
 203              		.loc 1 159 0
 204 0032 3B69     		ldr	r3, [r7, #16]
 205 0034 5B00     		lsl	r3, r3, #1
 206 0036 3A68     		ldr	r2, [r7]
 207 0038 D318     		add	r3, r2, r3
 208 003a 1B78     		ldrb	r3, [r3]
 209 003c 1A1C     		mov	r2, r3
 210 003e BB68     		ldr	r3, [r7, #8]
 211 0040 D318     		add	r3, r2, r3
 212 0042 3A69     		ldr	r2, [r7, #16]
 213 0044 5200     		lsl	r2, r2, #1
 214 0046 3968     		ldr	r1, [r7]
 215 0048 8A18     		add	r2, r1, r2
 216 004a 5278     		ldrb	r2, [r2, #1]
 217 004c 1A70     		strb	r2, [r3]
 160:.\Generated_Source\PSoC4/cyfitter_cfg.c **** 			j++;
 218              		.loc 1 160 0
 219 004e 3B69     		ldr	r3, [r7, #16]
 220 0050 0133     		add	r3, r3, #1
 221 0052 3B61     		str	r3, [r7, #16]
 161:.\Generated_Source\PSoC4/cyfitter_cfg.c **** 			count--;
 222              		.loc 1 161 0
 223 0054 3B1C     		mov	r3, r7
 224 0056 0F33     		add	r3, r3, #15
 225 0058 1A78     		ldrb	r2, [r3]
 226 005a 3B1C     		mov	r3, r7
 227 005c 0F33     		add	r3, r3, #15
 228 005e 013A     		sub	r2, r2, #1
 229 0060 1A70     		strb	r2, [r3]
 230              	.L8:
 157:.\Generated_Source\PSoC4/cyfitter_cfg.c **** 		while (count != 0u)
 231              		.loc 1 157 0 discriminator 1
 232 0062 3B1C     		mov	r3, r7
 233 0064 0F33     		add	r3, r3, #15
 234 0066 1B78     		ldrb	r3, [r3]
 235 0068 002B     		cmp	r3, #0
 236 006a E2D1     		bne	.L9
 237              	.LBE2:
ARM GAS  C:\Users\Admin\AppData\Local\Temp\ccyrMX0g.s 			page 8


 152:.\Generated_Source\PSoC4/cyfitter_cfg.c **** 	for (i = 0u; i < CY_CFG_BASE_ADDR_COUNT; i++)
 238              		.loc 1 152 0
 239 006c 7B69     		ldr	r3, [r7, #20]
 240 006e 0133     		add	r3, r3, #1
 241 0070 7B61     		str	r3, [r7, #20]
 242              	.L7:
 152:.\Generated_Source\PSoC4/cyfitter_cfg.c **** 	for (i = 0u; i < CY_CFG_BASE_ADDR_COUNT; i++)
 243              		.loc 1 152 0 is_stmt 0 discriminator 1
 244 0072 7B69     		ldr	r3, [r7, #20]
 245 0074 082B     		cmp	r3, #8
 246 0076 CDD9     		bls	.L10
 162:.\Generated_Source\PSoC4/cyfitter_cfg.c **** 		}
 163:.\Generated_Source\PSoC4/cyfitter_cfg.c **** 	}
 164:.\Generated_Source\PSoC4/cyfitter_cfg.c **** }
 247              		.loc 1 164 0 is_stmt 1
 248 0078 BD46     		mov	sp, r7
 249 007a 06B0     		add	sp, sp, #24
 250              		@ sp needed
 251 007c 80BD     		pop	{r7, pc}
 252              		.cfi_endproc
 253              	.LFE6:
 254              		.size	cfg_write_bytes32, .-cfg_write_bytes32
 255 007e C046     		.section	.psocinit,"ax",%progbits
 256              		.align	2
 257              		.code	16
 258              		.thumb_func
 259              		.type	SetIMOBGTrims, %function
 260              	SetIMOBGTrims:
 261              	.LFB7:
 165:.\Generated_Source\PSoC4/cyfitter_cfg.c **** 
 166:.\Generated_Source\PSoC4/cyfitter_cfg.c **** /*******************************************************************************
 167:.\Generated_Source\PSoC4/cyfitter_cfg.c **** * Function Name: SetIMOBGTrims
 168:.\Generated_Source\PSoC4/cyfitter_cfg.c **** ********************************************************************************
 169:.\Generated_Source\PSoC4/cyfitter_cfg.c **** *
 170:.\Generated_Source\PSoC4/cyfitter_cfg.c **** * Summary:
 171:.\Generated_Source\PSoC4/cyfitter_cfg.c **** *   Performs the configuration of the bandgap trim for the IMO based on the given
 172:.\Generated_Source\PSoC4/cyfitter_cfg.c **** *   expected frequency of the IMO. 
 173:.\Generated_Source\PSoC4/cyfitter_cfg.c **** *
 174:.\Generated_Source\PSoC4/cyfitter_cfg.c **** * Parameters:
 175:.\Generated_Source\PSoC4/cyfitter_cfg.c **** *   imoFreq: Frequency for operation of the IMO.
 176:.\Generated_Source\PSoC4/cyfitter_cfg.c **** *
 177:.\Generated_Source\PSoC4/cyfitter_cfg.c **** * Return:
 178:.\Generated_Source\PSoC4/cyfitter_cfg.c **** *   void
 179:.\Generated_Source\PSoC4/cyfitter_cfg.c **** *
 180:.\Generated_Source\PSoC4/cyfitter_cfg.c **** *******************************************************************************/
 181:.\Generated_Source\PSoC4/cyfitter_cfg.c **** static void SetIMOBGTrims(uint8 imoFreq);
 182:.\Generated_Source\PSoC4/cyfitter_cfg.c **** CY_CFG_SECTION
 183:.\Generated_Source\PSoC4/cyfitter_cfg.c **** static void SetIMOBGTrims(uint8 imoFreq)
 184:.\Generated_Source\PSoC4/cyfitter_cfg.c **** {
 262              		.loc 1 184 0
 263              		.cfi_startproc
 264 0000 80B5     		push	{r7, lr}
 265              		.cfi_def_cfa_offset 8
 266              		.cfi_offset 7, -8
 267              		.cfi_offset 14, -4
 268 0002 84B0     		sub	sp, sp, #16
 269              		.cfi_def_cfa_offset 24
ARM GAS  C:\Users\Admin\AppData\Local\Temp\ccyrMX0g.s 			page 9


 270 0004 00AF     		add	r7, sp, #0
 271              		.cfi_def_cfa_register 7
 272 0006 021C     		mov	r2, r0
 273 0008 FB1D     		add	r3, r7, #7
 274 000a 1A70     		strb	r2, [r3]
 185:.\Generated_Source\PSoC4/cyfitter_cfg.c **** 	CYPACKED typedef struct {
 186:.\Generated_Source\PSoC4/cyfitter_cfg.c **** 		uint8 freq;
 187:.\Generated_Source\PSoC4/cyfitter_cfg.c **** 		uint8 absolute;
 188:.\Generated_Source\PSoC4/cyfitter_cfg.c **** 		uint8 tmpco;
 189:.\Generated_Source\PSoC4/cyfitter_cfg.c **** 	} CYPACKED_ATTR imo_trim_entry_t;
 190:.\Generated_Source\PSoC4/cyfitter_cfg.c **** 
 191:.\Generated_Source\PSoC4/cyfitter_cfg.c **** 	CYPACKED typedef struct {
 192:.\Generated_Source\PSoC4/cyfitter_cfg.c **** 		imo_trim_entry_t entries[4];
 193:.\Generated_Source\PSoC4/cyfitter_cfg.c **** 	} CYPACKED_ATTR imo_trim_table_t;
 194:.\Generated_Source\PSoC4/cyfitter_cfg.c **** 
 195:.\Generated_Source\PSoC4/cyfitter_cfg.c **** 	static const imo_trim_table_t *imo_trim_table = (const imo_trim_table_t *)CYREG_SFLASH_IMO_MAXF0;
 196:.\Generated_Source\PSoC4/cyfitter_cfg.c **** 	static const uint32 IMO_TRIM_FREQ_TABLE_ENTRIES = sizeof(imo_trim_table->entries)/sizeof(imo_trim_
 197:.\Generated_Source\PSoC4/cyfitter_cfg.c **** 
 198:.\Generated_Source\PSoC4/cyfitter_cfg.c **** 	int32 imoTrimIndex;
 199:.\Generated_Source\PSoC4/cyfitter_cfg.c **** 	uint8 setAbs;
 200:.\Generated_Source\PSoC4/cyfitter_cfg.c **** 	uint8 setTmpCo;
 201:.\Generated_Source\PSoC4/cyfitter_cfg.c **** 
 202:.\Generated_Source\PSoC4/cyfitter_cfg.c **** 	/* Traverse the SFLASH IMO frequency-dependent bandgap trim table to
 203:.\Generated_Source\PSoC4/cyfitter_cfg.c **** 	 * locate the appropriate value to trim the IMO bandgap based on freq. */
 204:.\Generated_Source\PSoC4/cyfitter_cfg.c **** 	setAbs = CY_GET_REG8((const void *)CYREG_SFLASH_IMO_ABS4);
 275              		.loc 1 204 0
 276 000c 204A     		ldr	r2, .L15
 277 000e 3B1C     		mov	r3, r7
 278 0010 0B33     		add	r3, r3, #11
 279 0012 1278     		ldrb	r2, [r2]
 280 0014 1A70     		strb	r2, [r3]
 205:.\Generated_Source\PSoC4/cyfitter_cfg.c **** 	setTmpCo = CY_GET_REG8((const void *)CYREG_SFLASH_IMO_TMPCO4);
 281              		.loc 1 205 0
 282 0016 1F4A     		ldr	r2, .L15+4
 283 0018 3B1C     		mov	r3, r7
 284 001a 0A33     		add	r3, r3, #10
 285 001c 1278     		ldrb	r2, [r2]
 286 001e 1A70     		strb	r2, [r3]
 206:.\Generated_Source\PSoC4/cyfitter_cfg.c **** 	for (imoTrimIndex = ((int32)IMO_TRIM_FREQ_TABLE_ENTRIES)-1;
 287              		.loc 1 206 0
 288 0020 0423     		mov	r3, #4
 289 0022 013B     		sub	r3, r3, #1
 290 0024 FB60     		str	r3, [r7, #12]
 291 0026 18E0     		b	.L12
 292              	.L14:
 207:.\Generated_Source\PSoC4/cyfitter_cfg.c **** 	     (imoTrimIndex >= 0) && (imoFreq <= imo_trim_table->entries[imoTrimIndex].freq);
 208:.\Generated_Source\PSoC4/cyfitter_cfg.c **** 	     imoTrimIndex--)
 209:.\Generated_Source\PSoC4/cyfitter_cfg.c **** 	{
 210:.\Generated_Source\PSoC4/cyfitter_cfg.c **** 		setAbs = imo_trim_table->entries[imoTrimIndex].absolute;
 293              		.loc 1 210 0
 294 0028 1B4B     		ldr	r3, .L15+8
 295 002a 1868     		ldr	r0, [r3]
 296 002c 391C     		mov	r1, r7
 297 002e 0B31     		add	r1, r1, #11
 298 0030 FA68     		ldr	r2, [r7, #12]
 299 0032 131C     		mov	r3, r2
 300 0034 5B00     		lsl	r3, r3, #1
ARM GAS  C:\Users\Admin\AppData\Local\Temp\ccyrMX0g.s 			page 10


 301 0036 9B18     		add	r3, r3, r2
 302 0038 C318     		add	r3, r0, r3
 303 003a 5B78     		ldrb	r3, [r3, #1]
 304 003c 0B70     		strb	r3, [r1]
 211:.\Generated_Source\PSoC4/cyfitter_cfg.c **** 		setTmpCo = imo_trim_table->entries[imoTrimIndex].tmpco;
 305              		.loc 1 211 0
 306 003e 164B     		ldr	r3, .L15+8
 307 0040 1868     		ldr	r0, [r3]
 308 0042 391C     		mov	r1, r7
 309 0044 0A31     		add	r1, r1, #10
 310 0046 FA68     		ldr	r2, [r7, #12]
 311 0048 131C     		mov	r3, r2
 312 004a 5B00     		lsl	r3, r3, #1
 313 004c 9B18     		add	r3, r3, r2
 314 004e C318     		add	r3, r0, r3
 315 0050 9B78     		ldrb	r3, [r3, #2]
 316 0052 0B70     		strb	r3, [r1]
 208:.\Generated_Source\PSoC4/cyfitter_cfg.c **** 	     imoTrimIndex--)
 317              		.loc 1 208 0
 318 0054 FB68     		ldr	r3, [r7, #12]
 319 0056 013B     		sub	r3, r3, #1
 320 0058 FB60     		str	r3, [r7, #12]
 321              	.L12:
 206:.\Generated_Source\PSoC4/cyfitter_cfg.c **** 	for (imoTrimIndex = ((int32)IMO_TRIM_FREQ_TABLE_ENTRIES)-1;
 322              		.loc 1 206 0 discriminator 1
 323 005a FB68     		ldr	r3, [r7, #12]
 324 005c 002B     		cmp	r3, #0
 325 005e 0ADB     		blt	.L13
 207:.\Generated_Source\PSoC4/cyfitter_cfg.c **** 	     (imoTrimIndex >= 0) && (imoFreq <= imo_trim_table->entries[imoTrimIndex].freq);
 326              		.loc 1 207 0
 327 0060 0D4B     		ldr	r3, .L15+8
 328 0062 1968     		ldr	r1, [r3]
 329 0064 FA68     		ldr	r2, [r7, #12]
 330 0066 131C     		mov	r3, r2
 331 0068 5B00     		lsl	r3, r3, #1
 332 006a 9B18     		add	r3, r3, r2
 333 006c 5B5C     		ldrb	r3, [r3, r1]
 334 006e FA1D     		add	r2, r7, #7
 335 0070 1278     		ldrb	r2, [r2]
 336 0072 9A42     		cmp	r2, r3
 337 0074 D8D9     		bls	.L14
 338              	.L13:
 212:.\Generated_Source\PSoC4/cyfitter_cfg.c **** 	}
 213:.\Generated_Source\PSoC4/cyfitter_cfg.c **** 
 214:.\Generated_Source\PSoC4/cyfitter_cfg.c **** 	CY_SET_REG32((void *)CYREG_PWR_BG_TRIM4, setAbs);
 339              		.loc 1 214 0
 340 0076 094B     		ldr	r3, .L15+12
 341 0078 3A1C     		mov	r2, r7
 342 007a 0B32     		add	r2, r2, #11
 343 007c 1278     		ldrb	r2, [r2]
 344 007e 1A60     		str	r2, [r3]
 215:.\Generated_Source\PSoC4/cyfitter_cfg.c **** 	CY_SET_REG32((void *)CYREG_PWR_BG_TRIM5, setTmpCo);
 345              		.loc 1 215 0
 346 0080 074B     		ldr	r3, .L15+16
 347 0082 3A1C     		mov	r2, r7
 348 0084 0A32     		add	r2, r2, #10
 349 0086 1278     		ldrb	r2, [r2]
ARM GAS  C:\Users\Admin\AppData\Local\Temp\ccyrMX0g.s 			page 11


 350 0088 1A60     		str	r2, [r3]
 216:.\Generated_Source\PSoC4/cyfitter_cfg.c **** }
 351              		.loc 1 216 0
 352 008a BD46     		mov	sp, r7
 353 008c 04B0     		add	sp, sp, #16
 354              		@ sp needed
 355 008e 80BD     		pop	{r7, pc}
 356              	.L16:
 357              		.align	2
 358              	.L15:
 359 0090 CCF1FF0F 		.word	268431820
 360 0094 CDF1FF0F 		.word	268431821
 361 0098 00000000 		.word	imo_trim_table.4746
 362 009c 1CFF0B40 		.word	1074528028
 363 00a0 20FF0B40 		.word	1074528032
 364              		.cfi_endproc
 365              	.LFE7:
 366              		.size	SetIMOBGTrims, .-SetIMOBGTrims
 367              		.align	2
 368              		.code	16
 369              		.thumb_func
 370              		.type	ClockSetup, %function
 371              	ClockSetup:
 372              	.LFB8:
 217:.\Generated_Source\PSoC4/cyfitter_cfg.c **** 
 218:.\Generated_Source\PSoC4/cyfitter_cfg.c **** 
 219:.\Generated_Source\PSoC4/cyfitter_cfg.c **** 
 220:.\Generated_Source\PSoC4/cyfitter_cfg.c **** /*******************************************************************************
 221:.\Generated_Source\PSoC4/cyfitter_cfg.c **** * Function Name: ClockSetup
 222:.\Generated_Source\PSoC4/cyfitter_cfg.c **** ********************************************************************************
 223:.\Generated_Source\PSoC4/cyfitter_cfg.c **** *
 224:.\Generated_Source\PSoC4/cyfitter_cfg.c **** * Summary:
 225:.\Generated_Source\PSoC4/cyfitter_cfg.c **** *   Performs the initialization of all of the clocks in the device based on the
 226:.\Generated_Source\PSoC4/cyfitter_cfg.c **** *   settings in the Clock tab of the DWR.  This includes enabling the requested
 227:.\Generated_Source\PSoC4/cyfitter_cfg.c **** *   clocks and setting the necessary dividers to produce the desired frequency. 
 228:.\Generated_Source\PSoC4/cyfitter_cfg.c **** *
 229:.\Generated_Source\PSoC4/cyfitter_cfg.c **** * Parameters:
 230:.\Generated_Source\PSoC4/cyfitter_cfg.c **** *   void
 231:.\Generated_Source\PSoC4/cyfitter_cfg.c **** *
 232:.\Generated_Source\PSoC4/cyfitter_cfg.c **** * Return:
 233:.\Generated_Source\PSoC4/cyfitter_cfg.c **** *   void
 234:.\Generated_Source\PSoC4/cyfitter_cfg.c **** *
 235:.\Generated_Source\PSoC4/cyfitter_cfg.c **** *******************************************************************************/
 236:.\Generated_Source\PSoC4/cyfitter_cfg.c **** static void ClockSetup(void);
 237:.\Generated_Source\PSoC4/cyfitter_cfg.c **** CY_CFG_SECTION
 238:.\Generated_Source\PSoC4/cyfitter_cfg.c **** static void ClockSetup(void)
 239:.\Generated_Source\PSoC4/cyfitter_cfg.c **** {
 373              		.loc 1 239 0
 374              		.cfi_startproc
 375 00a4 80B5     		push	{r7, lr}
 376              		.cfi_def_cfa_offset 8
 377              		.cfi_offset 7, -8
 378              		.cfi_offset 14, -4
 379 00a6 82B0     		sub	sp, sp, #8
 380              		.cfi_def_cfa_offset 16
 381 00a8 00AF     		add	r7, sp, #0
 382              		.cfi_def_cfa_register 7
ARM GAS  C:\Users\Admin\AppData\Local\Temp\ccyrMX0g.s 			page 12


 240:.\Generated_Source\PSoC4/cyfitter_cfg.c **** 	uint8 ecoStatus;
 241:.\Generated_Source\PSoC4/cyfitter_cfg.c **** 
 242:.\Generated_Source\PSoC4/cyfitter_cfg.c **** 	/* Set Flash Cycles based on max possible frequency in case a glitch occurs during ClockSetup(). *
 243:.\Generated_Source\PSoC4/cyfitter_cfg.c **** 	CY_SET_REG32((void CYXDATA *)(CYREG_CPUSS_FLASH_CTL), (0x0012u));
 383              		.loc 1 243 0
 384 00aa 444B     		ldr	r3, .L19
 385 00ac 1222     		mov	r2, #18
 386 00ae 1A60     		str	r2, [r3]
 244:.\Generated_Source\PSoC4/cyfitter_cfg.c **** 	/* Trim IMO BG based on desired frequency. */
 245:.\Generated_Source\PSoC4/cyfitter_cfg.c **** 	SetIMOBGTrims(3u);
 387              		.loc 1 245 0
 388 00b0 0320     		mov	r0, #3
 389 00b2 FFF7A5FF 		bl	SetIMOBGTrims
 246:.\Generated_Source\PSoC4/cyfitter_cfg.c **** 
 247:.\Generated_Source\PSoC4/cyfitter_cfg.c **** 	/* Going less than or equal to 24MHz, so update the clock speed then adjust trim value. */
 248:.\Generated_Source\PSoC4/cyfitter_cfg.c **** 	CY_SET_REG32((void CYXDATA *)(CYREG_CLK_IMO_TRIM2), (3u));
 390              		.loc 1 248 0
 391 00b6 424B     		ldr	r3, .L19+4
 392 00b8 0322     		mov	r2, #3
 393 00ba 1A60     		str	r2, [r3]
 249:.\Generated_Source\PSoC4/cyfitter_cfg.c **** 	CyDelayCycles(5u);
 394              		.loc 1 249 0
 395 00bc 0520     		mov	r0, #5
 396 00be FFF7FEFF 		bl	CyDelayCycles
 250:.\Generated_Source\PSoC4/cyfitter_cfg.c **** 	CY_SET_REG32((void CYXDATA *)(CYREG_CLK_IMO_TRIM1), (CY_GET_REG8((void *)CYREG_SFLASH_IMO_TRIM00))
 397              		.loc 1 250 0
 398 00c2 404B     		ldr	r3, .L19+8
 399 00c4 404A     		ldr	r2, .L19+12
 400 00c6 1278     		ldrb	r2, [r2]
 401 00c8 D2B2     		uxtb	r2, r2
 402 00ca 1A60     		str	r2, [r3]
 251:.\Generated_Source\PSoC4/cyfitter_cfg.c **** 	CyDelayUs(5u);
 403              		.loc 1 251 0
 404 00cc 0520     		mov	r0, #5
 405 00ce FFF7FEFF 		bl	CyDelayUs
 252:.\Generated_Source\PSoC4/cyfitter_cfg.c **** 
 253:.\Generated_Source\PSoC4/cyfitter_cfg.c **** 	/* Start the WCO */
 254:.\Generated_Source\PSoC4/cyfitter_cfg.c **** 	CySysClkWcoStart();
 406              		.loc 1 254 0
 407 00d2 FFF7FEFF 		bl	CySysClkWcoStart
 255:.\Generated_Source\PSoC4/cyfitter_cfg.c **** 	CyDelay(500u); /* WCO may take up to 500ms to start */
 408              		.loc 1 255 0
 409 00d6 FA23     		mov	r3, #250
 410 00d8 5B00     		lsl	r3, r3, #1
 411 00da 181C     		mov	r0, r3
 412 00dc FFF7FEFF 		bl	CyDelay
 256:.\Generated_Source\PSoC4/cyfitter_cfg.c **** 	(void)CySysClkWcoSetPowerMode(CY_SYS_CLK_WCO_LPM);    /* Switch to the low power mode */
 413              		.loc 1 256 0
 414 00e0 0120     		mov	r0, #1
 415 00e2 FFF7FEFF 		bl	CySysClkWcoSetPowerMode
 257:.\Generated_Source\PSoC4/cyfitter_cfg.c **** 	/* CYDEV_CLK_ILO_CONFIG Starting address: CYDEV_CLK_ILO_CONFIG */
 258:.\Generated_Source\PSoC4/cyfitter_cfg.c **** 	CY_SET_XTND_REG32((void CYFAR *)(CYREG_CLK_ILO_CONFIG), 0x80000006u);
 416              		.loc 1 258 0
 417 00e6 394B     		ldr	r3, .L19+16
 418 00e8 394A     		ldr	r2, .L19+20
 419 00ea 1A60     		str	r2, [r3]
 259:.\Generated_Source\PSoC4/cyfitter_cfg.c **** 
ARM GAS  C:\Users\Admin\AppData\Local\Temp\ccyrMX0g.s 			page 13


 260:.\Generated_Source\PSoC4/cyfitter_cfg.c **** 	/* CYDEV_WDT_CONFIG Starting address: CYDEV_WDT_CONFIG */
 261:.\Generated_Source\PSoC4/cyfitter_cfg.c **** 	CY_SET_XTND_REG32((void CYFAR *)(CYREG_WDT_CONFIG), 0x40000000u);
 420              		.loc 1 261 0
 421 00ec 394B     		ldr	r3, .L19+24
 422 00ee 8022     		mov	r2, #128
 423 00f0 D205     		lsl	r2, r2, #23
 424 00f2 1A60     		str	r2, [r3]
 262:.\Generated_Source\PSoC4/cyfitter_cfg.c **** 
 263:.\Generated_Source\PSoC4/cyfitter_cfg.c **** 
 264:.\Generated_Source\PSoC4/cyfitter_cfg.c **** 	CY_SET_XTND_REG32((void CYFAR *)(CYREG_BLE_BLERD_BB_XO_CAPTRIM), 0x00003E2Du);
 425              		.loc 1 264 0
 426 00f4 384B     		ldr	r3, .L19+28
 427 00f6 394A     		ldr	r2, .L19+32
 428 00f8 1A60     		str	r2, [r3]
 265:.\Generated_Source\PSoC4/cyfitter_cfg.c **** 	/* Disable Crystal Stable Interrupt before enabling ECO */
 266:.\Generated_Source\PSoC4/cyfitter_cfg.c **** 	CY_SET_REG32((void*)CYREG_BLE_BLESS_LL_DSM_CTRL, CY_GET_REG32((void*)CYREG_BLE_BLESS_LL_DSM_CTRL) 
 429              		.loc 1 266 0
 430 00fa 394B     		ldr	r3, .L19+36
 431 00fc 384A     		ldr	r2, .L19+36
 432 00fe 1268     		ldr	r2, [r2]
 433 0100 0821     		mov	r1, #8
 434 0102 8A43     		bic	r2, r1
 435 0104 1A60     		str	r2, [r3]
 267:.\Generated_Source\PSoC4/cyfitter_cfg.c **** 	/* Start the ECO and check status since it is needed for HFCLK */
 268:.\Generated_Source\PSoC4/cyfitter_cfg.c **** 	ecoStatus = CySysClkEcoStart(2000u);
 436              		.loc 1 268 0
 437 0106 FA23     		mov	r3, #250
 438 0108 DB00     		lsl	r3, r3, #3
 439 010a 181C     		mov	r0, r3
 440 010c FFF7FEFF 		bl	CySysClkEcoStart
 441 0110 021C     		mov	r2, r0
 442 0112 FB1D     		add	r3, r7, #7
 443 0114 1A70     		strb	r2, [r3]
 269:.\Generated_Source\PSoC4/cyfitter_cfg.c **** 	if (ecoStatus != CYRET_SUCCESS)
 444              		.loc 1 269 0
 445 0116 FB1D     		add	r3, r7, #7
 446 0118 1B78     		ldrb	r3, [r3]
 447 011a 002B     		cmp	r3, #0
 448 011c 02D0     		beq	.L18
 270:.\Generated_Source\PSoC4/cyfitter_cfg.c **** 	{
 271:.\Generated_Source\PSoC4/cyfitter_cfg.c **** 		CyClockStartupError(CYCLOCKSTART_XTAL_ERROR);
 449              		.loc 1 271 0
 450 011e 0120     		mov	r0, #1
 451 0120 FFF7FEFF 		bl	CyClockStartupError
 452              	.L18:
 272:.\Generated_Source\PSoC4/cyfitter_cfg.c **** 	}
 273:.\Generated_Source\PSoC4/cyfitter_cfg.c **** 	CyDelayUs(1500u); /* Wait to stabalize */
 453              		.loc 1 273 0
 454 0124 2F4B     		ldr	r3, .L19+40
 455 0126 181C     		mov	r0, r3
 456 0128 FFF7FEFF 		bl	CyDelayUs
 274:.\Generated_Source\PSoC4/cyfitter_cfg.c **** 
 275:.\Generated_Source\PSoC4/cyfitter_cfg.c **** 	/* Setup phase aligned clocks */
 276:.\Generated_Source\PSoC4/cyfitter_cfg.c **** 	CY_SET_REG32((void *)CYREG_PERI_DIV_16_CTL02, 0x00001700u);
 457              		.loc 1 276 0
 458 012c 2E4B     		ldr	r3, .L19+44
 459 012e B822     		mov	r2, #184
ARM GAS  C:\Users\Admin\AppData\Local\Temp\ccyrMX0g.s 			page 14


 460 0130 5201     		lsl	r2, r2, #5
 461 0132 1A60     		str	r2, [r3]
 277:.\Generated_Source\PSoC4/cyfitter_cfg.c **** 	CY_SET_REG32((void *)CYREG_PERI_DIV_CMD, 0x8000FF42u);
 462              		.loc 1 277 0
 463 0134 2D4B     		ldr	r3, .L19+48
 464 0136 2E4A     		ldr	r2, .L19+52
 465 0138 1A60     		str	r2, [r3]
 278:.\Generated_Source\PSoC4/cyfitter_cfg.c **** 	CY_SET_REG32((void *)CYREG_PERI_DIV_16_CTL04, 0x003A9700u);
 466              		.loc 1 278 0
 467 013a 2E4B     		ldr	r3, .L19+56
 468 013c 2E4A     		ldr	r2, .L19+60
 469 013e 1A60     		str	r2, [r3]
 279:.\Generated_Source\PSoC4/cyfitter_cfg.c **** 	CY_SET_REG32((void *)CYREG_PERI_DIV_CMD, 0x8000FF44u);
 470              		.loc 1 279 0
 471 0140 2A4B     		ldr	r3, .L19+48
 472 0142 2E4A     		ldr	r2, .L19+64
 473 0144 1A60     		str	r2, [r3]
 280:.\Generated_Source\PSoC4/cyfitter_cfg.c **** 	CY_SET_REG32((void *)CYREG_PERI_DIV_16_CTL00, 0x00000100u);
 474              		.loc 1 280 0
 475 0146 2E4B     		ldr	r3, .L19+68
 476 0148 8022     		mov	r2, #128
 477 014a 5200     		lsl	r2, r2, #1
 478 014c 1A60     		str	r2, [r3]
 281:.\Generated_Source\PSoC4/cyfitter_cfg.c **** 	CY_SET_REG32((void *)CYREG_PERI_DIV_CMD, 0x8000FF40u);
 479              		.loc 1 281 0
 480 014e 274B     		ldr	r3, .L19+48
 481 0150 2C4A     		ldr	r2, .L19+72
 482 0152 1A60     		str	r2, [r3]
 282:.\Generated_Source\PSoC4/cyfitter_cfg.c **** 	CY_SET_REG32((void *)CYREG_PERI_DIV_16_CTL01, 0x00000100u);
 483              		.loc 1 282 0
 484 0154 2C4B     		ldr	r3, .L19+76
 485 0156 8022     		mov	r2, #128
 486 0158 5200     		lsl	r2, r2, #1
 487 015a 1A60     		str	r2, [r3]
 283:.\Generated_Source\PSoC4/cyfitter_cfg.c **** 	CY_SET_REG32((void *)CYREG_PERI_DIV_CMD, 0x8000FF41u);
 488              		.loc 1 283 0
 489 015c 234B     		ldr	r3, .L19+48
 490 015e 2B4A     		ldr	r2, .L19+80
 491 0160 1A60     		str	r2, [r3]
 284:.\Generated_Source\PSoC4/cyfitter_cfg.c **** 	CY_SET_REG32((void *)CYREG_PERI_DIV_16_CTL03, 0x00009B00u);
 492              		.loc 1 284 0
 493 0162 2B4B     		ldr	r3, .L19+84
 494 0164 9B22     		mov	r2, #155
 495 0166 1202     		lsl	r2, r2, #8
 496 0168 1A60     		str	r2, [r3]
 285:.\Generated_Source\PSoC4/cyfitter_cfg.c **** 	CY_SET_REG32((void *)CYREG_PERI_DIV_CMD, 0x8000FF43u);
 497              		.loc 1 285 0
 498 016a 204B     		ldr	r3, .L19+48
 499 016c 294A     		ldr	r2, .L19+88
 500 016e 1A60     		str	r2, [r3]
 286:.\Generated_Source\PSoC4/cyfitter_cfg.c **** 
 287:.\Generated_Source\PSoC4/cyfitter_cfg.c **** 	/* CYDEV_CLK_SELECT Starting address: CYDEV_CLK_SELECT */
 288:.\Generated_Source\PSoC4/cyfitter_cfg.c **** 	CY_SET_XTND_REG32((void CYFAR *)(CYREG_CLK_SELECT), 0x00080092u);
 501              		.loc 1 288 0
 502 0170 294B     		ldr	r3, .L19+92
 503 0172 2A4A     		ldr	r2, .L19+96
 504 0174 1A60     		str	r2, [r3]
ARM GAS  C:\Users\Admin\AppData\Local\Temp\ccyrMX0g.s 			page 15


 289:.\Generated_Source\PSoC4/cyfitter_cfg.c **** 
 290:.\Generated_Source\PSoC4/cyfitter_cfg.c **** 	/* CYDEV_CLK_IMO_CONFIG Starting address: CYDEV_CLK_IMO_CONFIG */
 291:.\Generated_Source\PSoC4/cyfitter_cfg.c **** 	CY_SET_XTND_REG32((void CYFAR *)(CYREG_CLK_IMO_CONFIG), 0xA6000000u);
 505              		.loc 1 291 0
 506 0176 2A4B     		ldr	r3, .L19+100
 507 0178 A622     		mov	r2, #166
 508 017a 1206     		lsl	r2, r2, #24
 509 017c 1A60     		str	r2, [r3]
 292:.\Generated_Source\PSoC4/cyfitter_cfg.c **** 
 293:.\Generated_Source\PSoC4/cyfitter_cfg.c **** 	/* CYDEV_PERI_PCLK_CTL14 Starting address: CYDEV_PERI_PCLK_CTL14 */
 294:.\Generated_Source\PSoC4/cyfitter_cfg.c **** 	CY_SET_XTND_REG32((void CYFAR *)(CYREG_PERI_PCLK_CTL14), 0x00000042u);
 510              		.loc 1 294 0
 511 017e 294B     		ldr	r3, .L19+104
 512 0180 4222     		mov	r2, #66
 513 0182 1A60     		str	r2, [r3]
 295:.\Generated_Source\PSoC4/cyfitter_cfg.c **** 
 296:.\Generated_Source\PSoC4/cyfitter_cfg.c **** 	/* CYDEV_PERI_PCLK_CTL13 Starting address: CYDEV_PERI_PCLK_CTL13 */
 297:.\Generated_Source\PSoC4/cyfitter_cfg.c **** 	CY_SET_XTND_REG32((void CYFAR *)(CYREG_PERI_PCLK_CTL13), 0x00000044u);
 514              		.loc 1 297 0
 515 0184 284B     		ldr	r3, .L19+108
 516 0186 4422     		mov	r2, #68
 517 0188 1A60     		str	r2, [r3]
 298:.\Generated_Source\PSoC4/cyfitter_cfg.c **** 
 299:.\Generated_Source\PSoC4/cyfitter_cfg.c **** 	/* CYDEV_PERI_PCLK_CTL12 Starting address: CYDEV_PERI_PCLK_CTL12 */
 300:.\Generated_Source\PSoC4/cyfitter_cfg.c **** 	CY_SET_XTND_REG32((void CYFAR *)(CYREG_PERI_PCLK_CTL12), 0x00000040u);
 518              		.loc 1 300 0
 519 018a 284B     		ldr	r3, .L19+112
 520 018c 4022     		mov	r2, #64
 521 018e 1A60     		str	r2, [r3]
 301:.\Generated_Source\PSoC4/cyfitter_cfg.c **** 
 302:.\Generated_Source\PSoC4/cyfitter_cfg.c **** 	/* CYDEV_PERI_PCLK_CTL10 Starting address: CYDEV_PERI_PCLK_CTL10 */
 303:.\Generated_Source\PSoC4/cyfitter_cfg.c **** 	CY_SET_XTND_REG32((void CYFAR *)(CYREG_PERI_PCLK_CTL10), 0x00000041u);
 522              		.loc 1 303 0
 523 0190 274B     		ldr	r3, .L19+116
 524 0192 4122     		mov	r2, #65
 525 0194 1A60     		str	r2, [r3]
 304:.\Generated_Source\PSoC4/cyfitter_cfg.c **** 
 305:.\Generated_Source\PSoC4/cyfitter_cfg.c **** 	/* CYDEV_PERI_PCLK_CTL09 Starting address: CYDEV_PERI_PCLK_CTL09 */
 306:.\Generated_Source\PSoC4/cyfitter_cfg.c **** 	CY_SET_XTND_REG32((void CYFAR *)(CYREG_PERI_PCLK_CTL09), 0x00000041u);
 526              		.loc 1 306 0
 527 0196 274B     		ldr	r3, .L19+120
 528 0198 4122     		mov	r2, #65
 529 019a 1A60     		str	r2, [r3]
 307:.\Generated_Source\PSoC4/cyfitter_cfg.c **** 
 308:.\Generated_Source\PSoC4/cyfitter_cfg.c **** 	/* CYDEV_PERI_PCLK_CTL08 Starting address: CYDEV_PERI_PCLK_CTL08 */
 309:.\Generated_Source\PSoC4/cyfitter_cfg.c **** 	CY_SET_XTND_REG32((void CYFAR *)(CYREG_PERI_PCLK_CTL08), 0x00000041u);
 530              		.loc 1 309 0
 531 019c 264B     		ldr	r3, .L19+124
 532 019e 4122     		mov	r2, #65
 533 01a0 1A60     		str	r2, [r3]
 310:.\Generated_Source\PSoC4/cyfitter_cfg.c **** 
 311:.\Generated_Source\PSoC4/cyfitter_cfg.c **** 	/* CYDEV_PERI_PCLK_CTL07 Starting address: CYDEV_PERI_PCLK_CTL07 */
 312:.\Generated_Source\PSoC4/cyfitter_cfg.c **** 	CY_SET_XTND_REG32((void CYFAR *)(CYREG_PERI_PCLK_CTL07), 0x00000041u);
 534              		.loc 1 312 0
 535 01a2 264B     		ldr	r3, .L19+128
 536 01a4 4122     		mov	r2, #65
 537 01a6 1A60     		str	r2, [r3]
ARM GAS  C:\Users\Admin\AppData\Local\Temp\ccyrMX0g.s 			page 16


 313:.\Generated_Source\PSoC4/cyfitter_cfg.c **** 
 314:.\Generated_Source\PSoC4/cyfitter_cfg.c **** 	/* CYDEV_PERI_PCLK_CTL01 Starting address: CYDEV_PERI_PCLK_CTL01 */
 315:.\Generated_Source\PSoC4/cyfitter_cfg.c **** 	CY_SET_XTND_REG32((void CYFAR *)(CYREG_PERI_PCLK_CTL01), 0x00000043u);
 538              		.loc 1 315 0
 539 01a8 254B     		ldr	r3, .L19+132
 540 01aa 4322     		mov	r2, #67
 541 01ac 1A60     		str	r2, [r3]
 316:.\Generated_Source\PSoC4/cyfitter_cfg.c **** 
 317:.\Generated_Source\PSoC4/cyfitter_cfg.c **** 	/* Set Flash Cycles based on newly configured 24.00MHz HFCLK. */
 318:.\Generated_Source\PSoC4/cyfitter_cfg.c **** 	CY_SET_REG32((void CYXDATA *)(CYREG_CPUSS_FLASH_CTL), (0x0011u));
 542              		.loc 1 318 0
 543 01ae 034B     		ldr	r3, .L19
 544 01b0 1122     		mov	r2, #17
 545 01b2 1A60     		str	r2, [r3]
 319:.\Generated_Source\PSoC4/cyfitter_cfg.c **** }
 546              		.loc 1 319 0
 547 01b4 BD46     		mov	sp, r7
 548 01b6 02B0     		add	sp, sp, #8
 549              		@ sp needed
 550 01b8 80BD     		pop	{r7, pc}
 551              	.L20:
 552 01ba C046     		.align	2
 553              	.L19:
 554 01bc 30001040 		.word	1074790448
 555 01c0 2CFF0B40 		.word	1074528044
 556 01c4 28FF0B40 		.word	1074528040
 557 01c8 D0F1FF0F 		.word	268431824
 558 01cc 04010B40 		.word	1074462980
 559 01d0 06000080 		.word	-2147483642
 560 01d4 0C020B40 		.word	1074463244
 561 01d8 7C002E40 		.word	1076756604
 562 01dc 2D3E0000 		.word	15917
 563 01e0 6CF02E40 		.word	1076818028
 564 01e4 DC050000 		.word	1500
 565 01e8 08030140 		.word	1073808136
 566 01ec 00000140 		.word	1073807360
 567 01f0 42FF0080 		.word	-2147418302
 568 01f4 10030140 		.word	1073808144
 569 01f8 00973A00 		.word	3839744
 570 01fc 44FF0080 		.word	-2147418300
 571 0200 00030140 		.word	1073808128
 572 0204 40FF0080 		.word	-2147418304
 573 0208 04030140 		.word	1073808132
 574 020c 41FF0080 		.word	-2147418303
 575 0210 0C030140 		.word	1073808140
 576 0214 43FF0080 		.word	-2147418301
 577 0218 00010B40 		.word	1074462976
 578 021c 92000800 		.word	524434
 579 0220 08010B40 		.word	1074462984
 580 0224 38010140 		.word	1073807672
 581 0228 34010140 		.word	1073807668
 582 022c 30010140 		.word	1073807664
 583 0230 28010140 		.word	1073807656
 584 0234 24010140 		.word	1073807652
 585 0238 20010140 		.word	1073807648
 586 023c 1C010140 		.word	1073807644
 587 0240 04010140 		.word	1073807620
ARM GAS  C:\Users\Admin\AppData\Local\Temp\ccyrMX0g.s 			page 17


 588              		.cfi_endproc
 589              	.LFE8:
 590              		.size	ClockSetup, .-ClockSetup
 591              		.section	.text.AnalogSetDefault,"ax",%progbits
 592              		.align	2
 593              		.code	16
 594              		.thumb_func
 595              		.type	AnalogSetDefault, %function
 596              	AnalogSetDefault:
 597              	.LFB9:
 320:.\Generated_Source\PSoC4/cyfitter_cfg.c **** 
 321:.\Generated_Source\PSoC4/cyfitter_cfg.c **** 
 322:.\Generated_Source\PSoC4/cyfitter_cfg.c **** /* Analog API Functions */
 323:.\Generated_Source\PSoC4/cyfitter_cfg.c **** 
 324:.\Generated_Source\PSoC4/cyfitter_cfg.c **** 
 325:.\Generated_Source\PSoC4/cyfitter_cfg.c **** /*******************************************************************************
 326:.\Generated_Source\PSoC4/cyfitter_cfg.c **** * Function Name: AnalogSetDefault
 327:.\Generated_Source\PSoC4/cyfitter_cfg.c **** ********************************************************************************
 328:.\Generated_Source\PSoC4/cyfitter_cfg.c **** *
 329:.\Generated_Source\PSoC4/cyfitter_cfg.c **** * Summary:
 330:.\Generated_Source\PSoC4/cyfitter_cfg.c **** *  Sets up the analog portions of the chip to default values based on chip
 331:.\Generated_Source\PSoC4/cyfitter_cfg.c **** *  configuration options from the project.
 332:.\Generated_Source\PSoC4/cyfitter_cfg.c **** *
 333:.\Generated_Source\PSoC4/cyfitter_cfg.c **** * Parameters:
 334:.\Generated_Source\PSoC4/cyfitter_cfg.c **** *  void
 335:.\Generated_Source\PSoC4/cyfitter_cfg.c **** *
 336:.\Generated_Source\PSoC4/cyfitter_cfg.c **** * Return:
 337:.\Generated_Source\PSoC4/cyfitter_cfg.c **** *  void
 338:.\Generated_Source\PSoC4/cyfitter_cfg.c **** *
 339:.\Generated_Source\PSoC4/cyfitter_cfg.c **** *******************************************************************************/
 340:.\Generated_Source\PSoC4/cyfitter_cfg.c **** static void AnalogSetDefault(void);
 341:.\Generated_Source\PSoC4/cyfitter_cfg.c **** static void AnalogSetDefault(void)
 342:.\Generated_Source\PSoC4/cyfitter_cfg.c **** {
 598              		.loc 1 342 0
 599              		.cfi_startproc
 600 0000 80B5     		push	{r7, lr}
 601              		.cfi_def_cfa_offset 8
 602              		.cfi_offset 7, -8
 603              		.cfi_offset 14, -4
 604 0002 00AF     		add	r7, sp, #0
 605              		.cfi_def_cfa_register 7
 343:.\Generated_Source\PSoC4/cyfitter_cfg.c **** 	CY_SET_XTND_REG32((void CYFAR *)CYREG_CTBM0_CTB_CTRL, 0x80000000u);
 606              		.loc 1 343 0
 607 0004 0C4B     		ldr	r3, .L22
 608 0006 8022     		mov	r2, #128
 609 0008 1206     		lsl	r2, r2, #24
 610 000a 1A60     		str	r2, [r3]
 344:.\Generated_Source\PSoC4/cyfitter_cfg.c **** 	CY_SET_XTND_REG32((void CYFAR *)CYREG_CTBM0_DFT_CTRL, 0x00000003u);
 611              		.loc 1 344 0
 612 000c 0B4B     		ldr	r3, .L22+4
 613 000e 0322     		mov	r2, #3
 614 0010 1A60     		str	r2, [r3]
 345:.\Generated_Source\PSoC4/cyfitter_cfg.c **** 	CY_SET_XTND_REG32((void CYFAR *)CYREG_CTBM0_OA0_SW, 0x00204004u);
 615              		.loc 1 345 0
 616 0012 0B4B     		ldr	r3, .L22+8
 617 0014 0B4A     		ldr	r2, .L22+12
 618 0016 1A60     		str	r2, [r3]
ARM GAS  C:\Users\Admin\AppData\Local\Temp\ccyrMX0g.s 			page 18


 346:.\Generated_Source\PSoC4/cyfitter_cfg.c **** 	CY_SET_XTND_REG32((void CYFAR *)CYREG_CTBM0_OA1_SW, 0x00000102u);
 619              		.loc 1 346 0
 620 0018 0B4B     		ldr	r3, .L22+16
 621 001a 8122     		mov	r2, #129
 622 001c 5200     		lsl	r2, r2, #1
 623 001e 1A60     		str	r2, [r3]
 347:.\Generated_Source\PSoC4/cyfitter_cfg.c **** 	CY_SET_XTND_REG32((void CYFAR *)CYREG_CTBM1_DFT_CTRL, 0x00000003u);
 624              		.loc 1 347 0
 625 0020 0A4B     		ldr	r3, .L22+20
 626 0022 0322     		mov	r2, #3
 627 0024 1A60     		str	r2, [r3]
 348:.\Generated_Source\PSoC4/cyfitter_cfg.c **** 	CY_SET_XTND_REG32((void CYFAR *)CYREG_PASS_DSAB_DSAB_CTRL, 0x00000000u);
 628              		.loc 1 348 0
 629 0026 0A4B     		ldr	r3, .L22+24
 630 0028 0022     		mov	r2, #0
 631 002a 1A60     		str	r2, [r3]
 349:.\Generated_Source\PSoC4/cyfitter_cfg.c **** 	SetAnalogRoutingPumps(1);
 632              		.loc 1 349 0
 633 002c 0120     		mov	r0, #1
 634 002e FFF7FEFF 		bl	SetAnalogRoutingPumps
 350:.\Generated_Source\PSoC4/cyfitter_cfg.c **** }
 635              		.loc 1 350 0
 636 0032 BD46     		mov	sp, r7
 637              		@ sp needed
 638 0034 80BD     		pop	{r7, pc}
 639              	.L23:
 640 0036 C046     		.align	2
 641              	.L22:
 642 0038 00003040 		.word	1076887552
 643 003c 30003040 		.word	1076887600
 644 0040 80003040 		.word	1076887680
 645 0044 04402000 		.word	2113540
 646 0048 88003040 		.word	1076887688
 647 004c 30003140 		.word	1076953136
 648 0050 000E3F40 		.word	1077874176
 649              		.cfi_endproc
 650              	.LFE9:
 651              		.size	AnalogSetDefault, .-AnalogSetDefault
 652              		.section	.text.SetAnalogRoutingPumps,"ax",%progbits
 653              		.align	2
 654              		.global	SetAnalogRoutingPumps
 655              		.code	16
 656              		.thumb_func
 657              		.type	SetAnalogRoutingPumps, %function
 658              	SetAnalogRoutingPumps:
 659              	.LFB10:
 351:.\Generated_Source\PSoC4/cyfitter_cfg.c **** 
 352:.\Generated_Source\PSoC4/cyfitter_cfg.c **** 
 353:.\Generated_Source\PSoC4/cyfitter_cfg.c **** /*******************************************************************************
 354:.\Generated_Source\PSoC4/cyfitter_cfg.c **** * Function Name: SetAnalogRoutingPumps
 355:.\Generated_Source\PSoC4/cyfitter_cfg.c **** ********************************************************************************
 356:.\Generated_Source\PSoC4/cyfitter_cfg.c **** *
 357:.\Generated_Source\PSoC4/cyfitter_cfg.c **** * Summary:
 358:.\Generated_Source\PSoC4/cyfitter_cfg.c **** * Enables or disables the analog pumps feeding analog routing switches.
 359:.\Generated_Source\PSoC4/cyfitter_cfg.c **** * Intended to be called at startup, based on the Vdda system configuration;
 360:.\Generated_Source\PSoC4/cyfitter_cfg.c **** * may be called during operation when the user informs us that the Vdda voltage crossed the pump th
 361:.\Generated_Source\PSoC4/cyfitter_cfg.c **** *
ARM GAS  C:\Users\Admin\AppData\Local\Temp\ccyrMX0g.s 			page 19


 362:.\Generated_Source\PSoC4/cyfitter_cfg.c **** * Parameters:
 363:.\Generated_Source\PSoC4/cyfitter_cfg.c **** *  enabled - 1 to enable the pumps, 0 to disable the pumps
 364:.\Generated_Source\PSoC4/cyfitter_cfg.c **** *
 365:.\Generated_Source\PSoC4/cyfitter_cfg.c **** * Return:
 366:.\Generated_Source\PSoC4/cyfitter_cfg.c **** *  void
 367:.\Generated_Source\PSoC4/cyfitter_cfg.c **** *
 368:.\Generated_Source\PSoC4/cyfitter_cfg.c **** *******************************************************************************/
 369:.\Generated_Source\PSoC4/cyfitter_cfg.c **** void SetAnalogRoutingPumps(uint8 enabled)
 370:.\Generated_Source\PSoC4/cyfitter_cfg.c **** {
 660              		.loc 1 370 0
 661              		.cfi_startproc
 662 0000 80B5     		push	{r7, lr}
 663              		.cfi_def_cfa_offset 8
 664              		.cfi_offset 7, -8
 665              		.cfi_offset 14, -4
 666 0002 84B0     		sub	sp, sp, #16
 667              		.cfi_def_cfa_offset 24
 668 0004 00AF     		add	r7, sp, #0
 669              		.cfi_def_cfa_register 7
 670 0006 021C     		mov	r2, r0
 671 0008 FB1D     		add	r3, r7, #7
 672 000a 1A70     		strb	r2, [r3]
 371:.\Generated_Source\PSoC4/cyfitter_cfg.c **** 	uint32 regValue = CY_GET_XTND_REG32((void *)(CYREG_SAR_PUMP_CTRL));
 673              		.loc 1 371 0
 674 000c 0B4B     		ldr	r3, .L27
 675 000e 1B68     		ldr	r3, [r3]
 676 0010 FB60     		str	r3, [r7, #12]
 372:.\Generated_Source\PSoC4/cyfitter_cfg.c **** 	if (enabled != 0u)
 677              		.loc 1 372 0
 678 0012 FB1D     		add	r3, r7, #7
 679 0014 1B78     		ldrb	r3, [r3]
 680 0016 002B     		cmp	r3, #0
 681 0018 05D0     		beq	.L25
 373:.\Generated_Source\PSoC4/cyfitter_cfg.c **** 	{
 374:.\Generated_Source\PSoC4/cyfitter_cfg.c **** 		regValue |= 0x80000000u;
 682              		.loc 1 374 0
 683 001a FB68     		ldr	r3, [r7, #12]
 684 001c 8022     		mov	r2, #128
 685 001e 1206     		lsl	r2, r2, #24
 686 0020 1343     		orr	r3, r2
 687 0022 FB60     		str	r3, [r7, #12]
 688 0024 03E0     		b	.L26
 689              	.L25:
 375:.\Generated_Source\PSoC4/cyfitter_cfg.c **** 	}
 376:.\Generated_Source\PSoC4/cyfitter_cfg.c **** 	else
 377:.\Generated_Source\PSoC4/cyfitter_cfg.c **** 	{
 378:.\Generated_Source\PSoC4/cyfitter_cfg.c **** 		regValue &= ~0x80000000u;
 690              		.loc 1 378 0
 691 0026 FB68     		ldr	r3, [r7, #12]
 692 0028 5B00     		lsl	r3, r3, #1
 693 002a 5B08     		lsr	r3, r3, #1
 694 002c FB60     		str	r3, [r7, #12]
 695              	.L26:
 379:.\Generated_Source\PSoC4/cyfitter_cfg.c **** 	}
 380:.\Generated_Source\PSoC4/cyfitter_cfg.c **** 	CY_SET_XTND_REG32((void *)(CYREG_SAR_PUMP_CTRL), regValue);
 696              		.loc 1 380 0
 697 002e 034B     		ldr	r3, .L27
ARM GAS  C:\Users\Admin\AppData\Local\Temp\ccyrMX0g.s 			page 20


 698 0030 FA68     		ldr	r2, [r7, #12]
 699 0032 1A60     		str	r2, [r3]
 381:.\Generated_Source\PSoC4/cyfitter_cfg.c **** }
 700              		.loc 1 381 0
 701 0034 BD46     		mov	sp, r7
 702 0036 04B0     		add	sp, sp, #16
 703              		@ sp needed
 704 0038 80BD     		pop	{r7, pc}
 705              	.L28:
 706 003a C046     		.align	2
 707              	.L27:
 708 003c 80033A40 		.word	1077543808
 709              		.cfi_endproc
 710              	.LFE10:
 711              		.size	SetAnalogRoutingPumps, .-SetAnalogRoutingPumps
 712              		.section	.psocinit
 713              		.align	2
 714              		.global	cyfitter_cfg
 715              		.code	16
 716              		.thumb_func
 717              		.type	cyfitter_cfg, %function
 718              	cyfitter_cfg:
 719              	.LFB11:
 382:.\Generated_Source\PSoC4/cyfitter_cfg.c **** 
 383:.\Generated_Source\PSoC4/cyfitter_cfg.c **** #define CY_AMUX_UNUSED CYREG_CM0_ROM_DWT
 384:.\Generated_Source\PSoC4/cyfitter_cfg.c **** 
 385:.\Generated_Source\PSoC4/cyfitter_cfg.c **** 
 386:.\Generated_Source\PSoC4/cyfitter_cfg.c **** /*******************************************************************************
 387:.\Generated_Source\PSoC4/cyfitter_cfg.c **** * Function Name: cyfitter_cfg
 388:.\Generated_Source\PSoC4/cyfitter_cfg.c **** ********************************************************************************
 389:.\Generated_Source\PSoC4/cyfitter_cfg.c **** * Summary:
 390:.\Generated_Source\PSoC4/cyfitter_cfg.c **** *  This function is called by the start-up code for the selected device. It
 391:.\Generated_Source\PSoC4/cyfitter_cfg.c **** *  performs all of the necessary device configuration based on the design
 392:.\Generated_Source\PSoC4/cyfitter_cfg.c **** *  settings.  This includes settings from the Design Wide Resources (DWR) such
 393:.\Generated_Source\PSoC4/cyfitter_cfg.c **** *  as Clocks and Pins as well as any component configuration that is necessary.
 394:.\Generated_Source\PSoC4/cyfitter_cfg.c **** *
 395:.\Generated_Source\PSoC4/cyfitter_cfg.c **** * Parameters:  
 396:.\Generated_Source\PSoC4/cyfitter_cfg.c **** *   void
 397:.\Generated_Source\PSoC4/cyfitter_cfg.c **** *
 398:.\Generated_Source\PSoC4/cyfitter_cfg.c **** * Return:
 399:.\Generated_Source\PSoC4/cyfitter_cfg.c **** *   void
 400:.\Generated_Source\PSoC4/cyfitter_cfg.c **** *
 401:.\Generated_Source\PSoC4/cyfitter_cfg.c **** *******************************************************************************/
 402:.\Generated_Source\PSoC4/cyfitter_cfg.c **** CY_CFG_SECTION
 403:.\Generated_Source\PSoC4/cyfitter_cfg.c **** void cyfitter_cfg(void)
 404:.\Generated_Source\PSoC4/cyfitter_cfg.c **** {
 720              		.loc 1 404 0
 721              		.cfi_startproc
 722 0244 80B5     		push	{r7, lr}
 723              		.cfi_def_cfa_offset 8
 724              		.cfi_offset 7, -8
 725              		.cfi_offset 14, -4
 726 0246 82B0     		sub	sp, sp, #8
 727              		.cfi_def_cfa_offset 16
 728 0248 00AF     		add	r7, sp, #0
 729              		.cfi_def_cfa_register 7
 405:.\Generated_Source\PSoC4/cyfitter_cfg.c **** 	/* Disable interrupts by default. Let user enable if/when they want. */
ARM GAS  C:\Users\Admin\AppData\Local\Temp\ccyrMX0g.s 			page 21


 406:.\Generated_Source\PSoC4/cyfitter_cfg.c **** 	CyGlobalIntDisable;
 730              		.loc 1 406 0
 731              	@ 406 ".\Generated_Source\PSoC4\cyfitter_cfg.c" 1
 732 024a 72B6     		CPSID   i
 733              	@ 0 "" 2
 407:.\Generated_Source\PSoC4/cyfitter_cfg.c **** 
 408:.\Generated_Source\PSoC4/cyfitter_cfg.c **** 	CY_SET_XTND_REG32((void CYFAR *)(CYREG_BLE_BLESS_LL_DSM_CTRL), 0x00000000u);
 734              		.loc 1 408 0
 735              		.code	16
 736 024c 5B4B     		ldr	r3, .L32
 737 024e 0022     		mov	r2, #0
 738 0250 1A60     		str	r2, [r3]
 409:.\Generated_Source\PSoC4/cyfitter_cfg.c **** 
 410:.\Generated_Source\PSoC4/cyfitter_cfg.c **** 	/* Enable the clock in the interrupt controller for the routed interrupts */
 411:.\Generated_Source\PSoC4/cyfitter_cfg.c **** 	CY_SET_REG8((void *)CYREG_UDB_UDBIF_INT_CLK_CTL, 0x01u);
 739              		.loc 1 411 0
 740 0252 5B4B     		ldr	r3, .L32+4
 741 0254 0122     		mov	r2, #1
 742 0256 1A70     		strb	r2, [r3]
 743              	.LBB3:
 412:.\Generated_Source\PSoC4/cyfitter_cfg.c **** 	{
 413:.\Generated_Source\PSoC4/cyfitter_cfg.c **** 		static const uint32 CYCODE cy_cfg_addr_table[] = {
 414:.\Generated_Source\PSoC4/cyfitter_cfg.c **** 			0x400F0001u, /* Base address: 0x400F0000 Count: 1 */
 415:.\Generated_Source\PSoC4/cyfitter_cfg.c **** 			0x400F3045u, /* Base address: 0x400F3000 Count: 69 */
 416:.\Generated_Source\PSoC4/cyfitter_cfg.c **** 			0x400F3126u, /* Base address: 0x400F3100 Count: 38 */
 417:.\Generated_Source\PSoC4/cyfitter_cfg.c **** 			0x400F324Bu, /* Base address: 0x400F3200 Count: 75 */
 418:.\Generated_Source\PSoC4/cyfitter_cfg.c **** 			0x400F3335u, /* Base address: 0x400F3300 Count: 53 */
 419:.\Generated_Source\PSoC4/cyfitter_cfg.c **** 			0x400F4111u, /* Base address: 0x400F4100 Count: 17 */
 420:.\Generated_Source\PSoC4/cyfitter_cfg.c **** 			0x400F4210u, /* Base address: 0x400F4200 Count: 16 */
 421:.\Generated_Source\PSoC4/cyfitter_cfg.c **** 			0x400F4312u, /* Base address: 0x400F4300 Count: 18 */
 422:.\Generated_Source\PSoC4/cyfitter_cfg.c **** 			0x400F6002u, /* Base address: 0x400F6000 Count: 2 */
 423:.\Generated_Source\PSoC4/cyfitter_cfg.c **** 		};
 424:.\Generated_Source\PSoC4/cyfitter_cfg.c **** 
 425:.\Generated_Source\PSoC4/cyfitter_cfg.c **** 		static const cy_cfg_addrvalue_t CYCODE cy_cfg_data_table[] = {
 426:.\Generated_Source\PSoC4/cyfitter_cfg.c **** 			{0x83u, 0x0Du},
 427:.\Generated_Source\PSoC4/cyfitter_cfg.c **** 			{0x05u, 0x04u},
 428:.\Generated_Source\PSoC4/cyfitter_cfg.c **** 			{0x07u, 0x08u},
 429:.\Generated_Source\PSoC4/cyfitter_cfg.c **** 			{0x09u, 0x01u},
 430:.\Generated_Source\PSoC4/cyfitter_cfg.c **** 			{0x0Bu, 0x02u},
 431:.\Generated_Source\PSoC4/cyfitter_cfg.c **** 			{0x0Du, 0x04u},
 432:.\Generated_Source\PSoC4/cyfitter_cfg.c **** 			{0x15u, 0x01u},
 433:.\Generated_Source\PSoC4/cyfitter_cfg.c **** 			{0x17u, 0x02u},
 434:.\Generated_Source\PSoC4/cyfitter_cfg.c **** 			{0x19u, 0x01u},
 435:.\Generated_Source\PSoC4/cyfitter_cfg.c **** 			{0x25u, 0x04u},
 436:.\Generated_Source\PSoC4/cyfitter_cfg.c **** 			{0x27u, 0x08u},
 437:.\Generated_Source\PSoC4/cyfitter_cfg.c **** 			{0x31u, 0x03u},
 438:.\Generated_Source\PSoC4/cyfitter_cfg.c **** 			{0x35u, 0x0Cu},
 439:.\Generated_Source\PSoC4/cyfitter_cfg.c **** 			{0x39u, 0x22u},
 440:.\Generated_Source\PSoC4/cyfitter_cfg.c **** 			{0x3Au, 0x0Cu},
 441:.\Generated_Source\PSoC4/cyfitter_cfg.c **** 			{0x40u, 0x03u},
 442:.\Generated_Source\PSoC4/cyfitter_cfg.c **** 			{0x46u, 0x54u},
 443:.\Generated_Source\PSoC4/cyfitter_cfg.c **** 			{0x47u, 0x01u},
 444:.\Generated_Source\PSoC4/cyfitter_cfg.c **** 			{0x48u, 0x1Du},
 445:.\Generated_Source\PSoC4/cyfitter_cfg.c **** 			{0x49u, 0xFFu},
 446:.\Generated_Source\PSoC4/cyfitter_cfg.c **** 			{0x4Au, 0xFFu},
 447:.\Generated_Source\PSoC4/cyfitter_cfg.c **** 			{0x4Bu, 0xFFu},
 448:.\Generated_Source\PSoC4/cyfitter_cfg.c **** 			{0x4Cu, 0x02u},
ARM GAS  C:\Users\Admin\AppData\Local\Temp\ccyrMX0g.s 			page 22


 449:.\Generated_Source\PSoC4/cyfitter_cfg.c **** 			{0x4Du, 0x20u},
 450:.\Generated_Source\PSoC4/cyfitter_cfg.c **** 			{0x4Eu, 0xF0u},
 451:.\Generated_Source\PSoC4/cyfitter_cfg.c **** 			{0x52u, 0x07u},
 452:.\Generated_Source\PSoC4/cyfitter_cfg.c **** 			{0x58u, 0x04u},
 453:.\Generated_Source\PSoC4/cyfitter_cfg.c **** 			{0x59u, 0x0Fu},
 454:.\Generated_Source\PSoC4/cyfitter_cfg.c **** 			{0x5Au, 0x0Fu},
 455:.\Generated_Source\PSoC4/cyfitter_cfg.c **** 			{0x5Bu, 0x04u},
 456:.\Generated_Source\PSoC4/cyfitter_cfg.c **** 			{0x5Cu, 0x31u},
 457:.\Generated_Source\PSoC4/cyfitter_cfg.c **** 			{0x5Du, 0x33u},
 458:.\Generated_Source\PSoC4/cyfitter_cfg.c **** 			{0x5Fu, 0x01u},
 459:.\Generated_Source\PSoC4/cyfitter_cfg.c **** 			{0x62u, 0x48u},
 460:.\Generated_Source\PSoC4/cyfitter_cfg.c **** 			{0x63u, 0xADu},
 461:.\Generated_Source\PSoC4/cyfitter_cfg.c **** 			{0x64u, 0xC0u},
 462:.\Generated_Source\PSoC4/cyfitter_cfg.c **** 			{0x66u, 0xC0u},
 463:.\Generated_Source\PSoC4/cyfitter_cfg.c **** 			{0x83u, 0x02u},
 464:.\Generated_Source\PSoC4/cyfitter_cfg.c **** 			{0x8Fu, 0x01u},
 465:.\Generated_Source\PSoC4/cyfitter_cfg.c **** 			{0x90u, 0x01u},
 466:.\Generated_Source\PSoC4/cyfitter_cfg.c **** 			{0x92u, 0x02u},
 467:.\Generated_Source\PSoC4/cyfitter_cfg.c **** 			{0x94u, 0x01u},
 468:.\Generated_Source\PSoC4/cyfitter_cfg.c **** 			{0xA4u, 0x01u},
 469:.\Generated_Source\PSoC4/cyfitter_cfg.c **** 			{0xA6u, 0x02u},
 470:.\Generated_Source\PSoC4/cyfitter_cfg.c **** 			{0xB4u, 0x03u},
 471:.\Generated_Source\PSoC4/cyfitter_cfg.c **** 			{0xB5u, 0x01u},
 472:.\Generated_Source\PSoC4/cyfitter_cfg.c **** 			{0xB7u, 0x02u},
 473:.\Generated_Source\PSoC4/cyfitter_cfg.c **** 			{0xB8u, 0x28u},
 474:.\Generated_Source\PSoC4/cyfitter_cfg.c **** 			{0xBEu, 0x04u},
 475:.\Generated_Source\PSoC4/cyfitter_cfg.c **** 			{0xC0u, 0x03u},
 476:.\Generated_Source\PSoC4/cyfitter_cfg.c **** 			{0xC6u, 0x01u},
 477:.\Generated_Source\PSoC4/cyfitter_cfg.c **** 			{0xC8u, 0x0Cu},
 478:.\Generated_Source\PSoC4/cyfitter_cfg.c **** 			{0xC9u, 0xFFu},
 479:.\Generated_Source\PSoC4/cyfitter_cfg.c **** 			{0xCAu, 0xFFu},
 480:.\Generated_Source\PSoC4/cyfitter_cfg.c **** 			{0xCBu, 0xFFu},
 481:.\Generated_Source\PSoC4/cyfitter_cfg.c **** 			{0xCCu, 0x02u},
 482:.\Generated_Source\PSoC4/cyfitter_cfg.c **** 			{0xCDu, 0x20u},
 483:.\Generated_Source\PSoC4/cyfitter_cfg.c **** 			{0xCEu, 0xF0u},
 484:.\Generated_Source\PSoC4/cyfitter_cfg.c **** 			{0xD2u, 0x03u},
 485:.\Generated_Source\PSoC4/cyfitter_cfg.c **** 			{0xD8u, 0x0Eu},
 486:.\Generated_Source\PSoC4/cyfitter_cfg.c **** 			{0xD9u, 0x04u},
 487:.\Generated_Source\PSoC4/cyfitter_cfg.c **** 			{0xDAu, 0x0Eu},
 488:.\Generated_Source\PSoC4/cyfitter_cfg.c **** 			{0xDBu, 0x04u},
 489:.\Generated_Source\PSoC4/cyfitter_cfg.c **** 			{0xDCu, 0x33u},
 490:.\Generated_Source\PSoC4/cyfitter_cfg.c **** 			{0xDDu, 0x33u},
 491:.\Generated_Source\PSoC4/cyfitter_cfg.c **** 			{0xDFu, 0x01u},
 492:.\Generated_Source\PSoC4/cyfitter_cfg.c **** 			{0xE2u, 0x48u},
 493:.\Generated_Source\PSoC4/cyfitter_cfg.c **** 			{0xE3u, 0xADu},
 494:.\Generated_Source\PSoC4/cyfitter_cfg.c **** 			{0xE4u, 0xC0u},
 495:.\Generated_Source\PSoC4/cyfitter_cfg.c **** 			{0xE6u, 0xC0u},
 496:.\Generated_Source\PSoC4/cyfitter_cfg.c **** 			{0x0Fu, 0xA0u},
 497:.\Generated_Source\PSoC4/cyfitter_cfg.c **** 			{0x17u, 0x04u},
 498:.\Generated_Source\PSoC4/cyfitter_cfg.c **** 			{0x18u, 0x20u},
 499:.\Generated_Source\PSoC4/cyfitter_cfg.c **** 			{0x1Du, 0x08u},
 500:.\Generated_Source\PSoC4/cyfitter_cfg.c **** 			{0x1Eu, 0x08u},
 501:.\Generated_Source\PSoC4/cyfitter_cfg.c **** 			{0x1Fu, 0x08u},
 502:.\Generated_Source\PSoC4/cyfitter_cfg.c **** 			{0x21u, 0x20u},
 503:.\Generated_Source\PSoC4/cyfitter_cfg.c **** 			{0x22u, 0x01u},
 504:.\Generated_Source\PSoC4/cyfitter_cfg.c **** 			{0x26u, 0x60u},
 505:.\Generated_Source\PSoC4/cyfitter_cfg.c **** 			{0x2Bu, 0x20u},
ARM GAS  C:\Users\Admin\AppData\Local\Temp\ccyrMX0g.s 			page 23


 506:.\Generated_Source\PSoC4/cyfitter_cfg.c **** 			{0x30u, 0x28u},
 507:.\Generated_Source\PSoC4/cyfitter_cfg.c **** 			{0x38u, 0x80u},
 508:.\Generated_Source\PSoC4/cyfitter_cfg.c **** 			{0x39u, 0x14u},
 509:.\Generated_Source\PSoC4/cyfitter_cfg.c **** 			{0x3Cu, 0x02u},
 510:.\Generated_Source\PSoC4/cyfitter_cfg.c **** 			{0x3Du, 0x80u},
 511:.\Generated_Source\PSoC4/cyfitter_cfg.c **** 			{0x43u, 0x08u},
 512:.\Generated_Source\PSoC4/cyfitter_cfg.c **** 			{0x45u, 0x08u},
 513:.\Generated_Source\PSoC4/cyfitter_cfg.c **** 			{0x48u, 0x20u},
 514:.\Generated_Source\PSoC4/cyfitter_cfg.c **** 			{0x50u, 0x48u},
 515:.\Generated_Source\PSoC4/cyfitter_cfg.c **** 			{0x53u, 0x20u},
 516:.\Generated_Source\PSoC4/cyfitter_cfg.c **** 			{0x57u, 0x50u},
 517:.\Generated_Source\PSoC4/cyfitter_cfg.c **** 			{0x68u, 0x01u},
 518:.\Generated_Source\PSoC4/cyfitter_cfg.c **** 			{0x69u, 0x14u},
 519:.\Generated_Source\PSoC4/cyfitter_cfg.c **** 			{0x6Du, 0x80u},
 520:.\Generated_Source\PSoC4/cyfitter_cfg.c **** 			{0x6Fu, 0x04u},
 521:.\Generated_Source\PSoC4/cyfitter_cfg.c **** 			{0x7Au, 0x40u},
 522:.\Generated_Source\PSoC4/cyfitter_cfg.c **** 			{0x7Eu, 0x20u},
 523:.\Generated_Source\PSoC4/cyfitter_cfg.c **** 			{0x82u, 0x04u},
 524:.\Generated_Source\PSoC4/cyfitter_cfg.c **** 			{0x86u, 0x01u},
 525:.\Generated_Source\PSoC4/cyfitter_cfg.c **** 			{0x8Cu, 0x10u},
 526:.\Generated_Source\PSoC4/cyfitter_cfg.c **** 			{0xC2u, 0x30u},
 527:.\Generated_Source\PSoC4/cyfitter_cfg.c **** 			{0xC4u, 0x20u},
 528:.\Generated_Source\PSoC4/cyfitter_cfg.c **** 			{0xCAu, 0x02u},
 529:.\Generated_Source\PSoC4/cyfitter_cfg.c **** 			{0xCCu, 0x06u},
 530:.\Generated_Source\PSoC4/cyfitter_cfg.c **** 			{0xCEu, 0x9Eu},
 531:.\Generated_Source\PSoC4/cyfitter_cfg.c **** 			{0xD0u, 0x42u},
 532:.\Generated_Source\PSoC4/cyfitter_cfg.c **** 			{0xDEu, 0x41u},
 533:.\Generated_Source\PSoC4/cyfitter_cfg.c **** 			{0xE4u, 0x06u},
 534:.\Generated_Source\PSoC4/cyfitter_cfg.c **** 			{0x1Eu, 0x01u},
 535:.\Generated_Source\PSoC4/cyfitter_cfg.c **** 			{0x34u, 0x01u},
 536:.\Generated_Source\PSoC4/cyfitter_cfg.c **** 			{0x3Bu, 0x0Cu},
 537:.\Generated_Source\PSoC4/cyfitter_cfg.c **** 			{0x40u, 0x60u},
 538:.\Generated_Source\PSoC4/cyfitter_cfg.c **** 			{0x41u, 0x05u},
 539:.\Generated_Source\PSoC4/cyfitter_cfg.c **** 			{0x49u, 0xFFu},
 540:.\Generated_Source\PSoC4/cyfitter_cfg.c **** 			{0x4Au, 0xFFu},
 541:.\Generated_Source\PSoC4/cyfitter_cfg.c **** 			{0x4Bu, 0xFFu},
 542:.\Generated_Source\PSoC4/cyfitter_cfg.c **** 			{0x4Du, 0xA0u},
 543:.\Generated_Source\PSoC4/cyfitter_cfg.c **** 			{0x4Fu, 0x04u},
 544:.\Generated_Source\PSoC4/cyfitter_cfg.c **** 			{0x50u, 0x18u},
 545:.\Generated_Source\PSoC4/cyfitter_cfg.c **** 			{0x56u, 0x08u},
 546:.\Generated_Source\PSoC4/cyfitter_cfg.c **** 			{0x58u, 0x0Bu},
 547:.\Generated_Source\PSoC4/cyfitter_cfg.c **** 			{0x59u, 0x04u},
 548:.\Generated_Source\PSoC4/cyfitter_cfg.c **** 			{0x5Au, 0x08u},
 549:.\Generated_Source\PSoC4/cyfitter_cfg.c **** 			{0x5Bu, 0x04u},
 550:.\Generated_Source\PSoC4/cyfitter_cfg.c **** 			{0x5Cu, 0x29u},
 551:.\Generated_Source\PSoC4/cyfitter_cfg.c **** 			{0x5Du, 0x99u},
 552:.\Generated_Source\PSoC4/cyfitter_cfg.c **** 			{0x5Fu, 0x01u},
 553:.\Generated_Source\PSoC4/cyfitter_cfg.c **** 			{0x60u, 0x40u},
 554:.\Generated_Source\PSoC4/cyfitter_cfg.c **** 			{0x62u, 0xC0u},
 555:.\Generated_Source\PSoC4/cyfitter_cfg.c **** 			{0x64u, 0x40u},
 556:.\Generated_Source\PSoC4/cyfitter_cfg.c **** 			{0x65u, 0x40u},
 557:.\Generated_Source\PSoC4/cyfitter_cfg.c **** 			{0x66u, 0xC0u},
 558:.\Generated_Source\PSoC4/cyfitter_cfg.c **** 			{0x68u, 0xC0u},
 559:.\Generated_Source\PSoC4/cyfitter_cfg.c **** 			{0x6Au, 0xC0u},
 560:.\Generated_Source\PSoC4/cyfitter_cfg.c **** 			{0x6Cu, 0xC0u},
 561:.\Generated_Source\PSoC4/cyfitter_cfg.c **** 			{0x6Eu, 0xC0u},
 562:.\Generated_Source\PSoC4/cyfitter_cfg.c **** 			{0x86u, 0x16u},
ARM GAS  C:\Users\Admin\AppData\Local\Temp\ccyrMX0g.s 			page 24


 563:.\Generated_Source\PSoC4/cyfitter_cfg.c **** 			{0x8Cu, 0x02u},
 564:.\Generated_Source\PSoC4/cyfitter_cfg.c **** 			{0x8Eu, 0x04u},
 565:.\Generated_Source\PSoC4/cyfitter_cfg.c **** 			{0x91u, 0x02u},
 566:.\Generated_Source\PSoC4/cyfitter_cfg.c **** 			{0x92u, 0x03u},
 567:.\Generated_Source\PSoC4/cyfitter_cfg.c **** 			{0x99u, 0x03u},
 568:.\Generated_Source\PSoC4/cyfitter_cfg.c **** 			{0x9Cu, 0x01u},
 569:.\Generated_Source\PSoC4/cyfitter_cfg.c **** 			{0xA2u, 0x09u},
 570:.\Generated_Source\PSoC4/cyfitter_cfg.c **** 			{0xA4u, 0x10u},
 571:.\Generated_Source\PSoC4/cyfitter_cfg.c **** 			{0xB0u, 0x10u},
 572:.\Generated_Source\PSoC4/cyfitter_cfg.c **** 			{0xB1u, 0x01u},
 573:.\Generated_Source\PSoC4/cyfitter_cfg.c **** 			{0xB2u, 0x04u},
 574:.\Generated_Source\PSoC4/cyfitter_cfg.c **** 			{0xB4u, 0x03u},
 575:.\Generated_Source\PSoC4/cyfitter_cfg.c **** 			{0xB6u, 0x08u},
 576:.\Generated_Source\PSoC4/cyfitter_cfg.c **** 			{0xB7u, 0x02u},
 577:.\Generated_Source\PSoC4/cyfitter_cfg.c **** 			{0xBEu, 0x04u},
 578:.\Generated_Source\PSoC4/cyfitter_cfg.c **** 			{0xC0u, 0x20u},
 579:.\Generated_Source\PSoC4/cyfitter_cfg.c **** 			{0xC1u, 0x05u},
 580:.\Generated_Source\PSoC4/cyfitter_cfg.c **** 			{0xC5u, 0xD1u},
 581:.\Generated_Source\PSoC4/cyfitter_cfg.c **** 			{0xC7u, 0x20u},
 582:.\Generated_Source\PSoC4/cyfitter_cfg.c **** 			{0xC8u, 0x23u},
 583:.\Generated_Source\PSoC4/cyfitter_cfg.c **** 			{0xC9u, 0xFFu},
 584:.\Generated_Source\PSoC4/cyfitter_cfg.c **** 			{0xCAu, 0xFFu},
 585:.\Generated_Source\PSoC4/cyfitter_cfg.c **** 			{0xCBu, 0xFFu},
 586:.\Generated_Source\PSoC4/cyfitter_cfg.c **** 			{0xCDu, 0xAFu},
 587:.\Generated_Source\PSoC4/cyfitter_cfg.c **** 			{0xCEu, 0x0Fu},
 588:.\Generated_Source\PSoC4/cyfitter_cfg.c **** 			{0xCFu, 0x04u},
 589:.\Generated_Source\PSoC4/cyfitter_cfg.c **** 			{0xD0u, 0x18u},
 590:.\Generated_Source\PSoC4/cyfitter_cfg.c **** 			{0xD2u, 0x80u},
 591:.\Generated_Source\PSoC4/cyfitter_cfg.c **** 			{0xD4u, 0x05u},
 592:.\Generated_Source\PSoC4/cyfitter_cfg.c **** 			{0xD6u, 0x04u},
 593:.\Generated_Source\PSoC4/cyfitter_cfg.c **** 			{0xD8u, 0x0Bu},
 594:.\Generated_Source\PSoC4/cyfitter_cfg.c **** 			{0xD9u, 0x0Bu},
 595:.\Generated_Source\PSoC4/cyfitter_cfg.c **** 			{0xDAu, 0x0Bu},
 596:.\Generated_Source\PSoC4/cyfitter_cfg.c **** 			{0xDBu, 0x0Bu},
 597:.\Generated_Source\PSoC4/cyfitter_cfg.c **** 			{0xDCu, 0x99u},
 598:.\Generated_Source\PSoC4/cyfitter_cfg.c **** 			{0xDDu, 0x99u},
 599:.\Generated_Source\PSoC4/cyfitter_cfg.c **** 			{0xDFu, 0x01u},
 600:.\Generated_Source\PSoC4/cyfitter_cfg.c **** 			{0xE0u, 0x40u},
 601:.\Generated_Source\PSoC4/cyfitter_cfg.c **** 			{0xE2u, 0xC0u},
 602:.\Generated_Source\PSoC4/cyfitter_cfg.c **** 			{0xE4u, 0x40u},
 603:.\Generated_Source\PSoC4/cyfitter_cfg.c **** 			{0xE5u, 0x40u},
 604:.\Generated_Source\PSoC4/cyfitter_cfg.c **** 			{0xE6u, 0xC0u},
 605:.\Generated_Source\PSoC4/cyfitter_cfg.c **** 			{0xE8u, 0xC0u},
 606:.\Generated_Source\PSoC4/cyfitter_cfg.c **** 			{0xEAu, 0xC0u},
 607:.\Generated_Source\PSoC4/cyfitter_cfg.c **** 			{0xECu, 0xC0u},
 608:.\Generated_Source\PSoC4/cyfitter_cfg.c **** 			{0xEEu, 0xC0u},
 609:.\Generated_Source\PSoC4/cyfitter_cfg.c **** 			{0x00u, 0x04u},
 610:.\Generated_Source\PSoC4/cyfitter_cfg.c **** 			{0x02u, 0x02u},
 611:.\Generated_Source\PSoC4/cyfitter_cfg.c **** 			{0x0Au, 0x01u},
 612:.\Generated_Source\PSoC4/cyfitter_cfg.c **** 			{0x0Bu, 0x40u},
 613:.\Generated_Source\PSoC4/cyfitter_cfg.c **** 			{0x0Fu, 0x02u},
 614:.\Generated_Source\PSoC4/cyfitter_cfg.c **** 			{0x10u, 0x20u},
 615:.\Generated_Source\PSoC4/cyfitter_cfg.c **** 			{0x11u, 0x02u},
 616:.\Generated_Source\PSoC4/cyfitter_cfg.c **** 			{0x18u, 0x04u},
 617:.\Generated_Source\PSoC4/cyfitter_cfg.c **** 			{0x19u, 0x04u},
 618:.\Generated_Source\PSoC4/cyfitter_cfg.c **** 			{0x1Au, 0x01u},
 619:.\Generated_Source\PSoC4/cyfitter_cfg.c **** 			{0x1Bu, 0x11u},
ARM GAS  C:\Users\Admin\AppData\Local\Temp\ccyrMX0g.s 			page 25


 620:.\Generated_Source\PSoC4/cyfitter_cfg.c **** 			{0x1Fu, 0x10u},
 621:.\Generated_Source\PSoC4/cyfitter_cfg.c **** 			{0x21u, 0x02u},
 622:.\Generated_Source\PSoC4/cyfitter_cfg.c **** 			{0x22u, 0x40u},
 623:.\Generated_Source\PSoC4/cyfitter_cfg.c **** 			{0x27u, 0x10u},
 624:.\Generated_Source\PSoC4/cyfitter_cfg.c **** 			{0x30u, 0x20u},
 625:.\Generated_Source\PSoC4/cyfitter_cfg.c **** 			{0x31u, 0x02u},
 626:.\Generated_Source\PSoC4/cyfitter_cfg.c **** 			{0x40u, 0x04u},
 627:.\Generated_Source\PSoC4/cyfitter_cfg.c **** 			{0x48u, 0x20u},
 628:.\Generated_Source\PSoC4/cyfitter_cfg.c **** 			{0x49u, 0x02u},
 629:.\Generated_Source\PSoC4/cyfitter_cfg.c **** 			{0x4Au, 0x02u},
 630:.\Generated_Source\PSoC4/cyfitter_cfg.c **** 			{0x4Eu, 0x02u},
 631:.\Generated_Source\PSoC4/cyfitter_cfg.c **** 			{0x4Fu, 0x20u},
 632:.\Generated_Source\PSoC4/cyfitter_cfg.c **** 			{0x52u, 0x02u},
 633:.\Generated_Source\PSoC4/cyfitter_cfg.c **** 			{0x59u, 0x06u},
 634:.\Generated_Source\PSoC4/cyfitter_cfg.c **** 			{0x5Au, 0x80u},
 635:.\Generated_Source\PSoC4/cyfitter_cfg.c **** 			{0x5Fu, 0x80u},
 636:.\Generated_Source\PSoC4/cyfitter_cfg.c **** 			{0x63u, 0x80u},
 637:.\Generated_Source\PSoC4/cyfitter_cfg.c **** 			{0x64u, 0x01u},
 638:.\Generated_Source\PSoC4/cyfitter_cfg.c **** 			{0x67u, 0x02u},
 639:.\Generated_Source\PSoC4/cyfitter_cfg.c **** 			{0x73u, 0x40u},
 640:.\Generated_Source\PSoC4/cyfitter_cfg.c **** 			{0x78u, 0x01u},
 641:.\Generated_Source\PSoC4/cyfitter_cfg.c **** 			{0x7Du, 0x02u},
 642:.\Generated_Source\PSoC4/cyfitter_cfg.c **** 			{0x7Fu, 0x01u},
 643:.\Generated_Source\PSoC4/cyfitter_cfg.c **** 			{0x81u, 0x01u},
 644:.\Generated_Source\PSoC4/cyfitter_cfg.c **** 			{0x83u, 0x40u},
 645:.\Generated_Source\PSoC4/cyfitter_cfg.c **** 			{0x87u, 0x10u},
 646:.\Generated_Source\PSoC4/cyfitter_cfg.c **** 			{0x89u, 0x20u},
 647:.\Generated_Source\PSoC4/cyfitter_cfg.c **** 			{0x8Bu, 0x01u},
 648:.\Generated_Source\PSoC4/cyfitter_cfg.c **** 			{0x8Fu, 0x90u},
 649:.\Generated_Source\PSoC4/cyfitter_cfg.c **** 			{0xA1u, 0x20u},
 650:.\Generated_Source\PSoC4/cyfitter_cfg.c **** 			{0xC0u, 0x05u},
 651:.\Generated_Source\PSoC4/cyfitter_cfg.c **** 			{0xC2u, 0x89u},
 652:.\Generated_Source\PSoC4/cyfitter_cfg.c **** 			{0xC4u, 0x0Cu},
 653:.\Generated_Source\PSoC4/cyfitter_cfg.c **** 			{0xCCu, 0x05u},
 654:.\Generated_Source\PSoC4/cyfitter_cfg.c **** 			{0xD0u, 0x04u},
 655:.\Generated_Source\PSoC4/cyfitter_cfg.c **** 			{0xD2u, 0x38u},
 656:.\Generated_Source\PSoC4/cyfitter_cfg.c **** 			{0xD6u, 0x1Bu},
 657:.\Generated_Source\PSoC4/cyfitter_cfg.c **** 			{0xD8u, 0x11u},
 658:.\Generated_Source\PSoC4/cyfitter_cfg.c **** 			{0xDEu, 0x91u},
 659:.\Generated_Source\PSoC4/cyfitter_cfg.c **** 			{0xE2u, 0x80u},
 660:.\Generated_Source\PSoC4/cyfitter_cfg.c **** 			{0xE4u, 0x03u},
 661:.\Generated_Source\PSoC4/cyfitter_cfg.c **** 			{0xE6u, 0x40u},
 662:.\Generated_Source\PSoC4/cyfitter_cfg.c **** 			{0x07u, 0x40u},
 663:.\Generated_Source\PSoC4/cyfitter_cfg.c **** 			{0x59u, 0x80u},
 664:.\Generated_Source\PSoC4/cyfitter_cfg.c **** 			{0x5Fu, 0x40u},
 665:.\Generated_Source\PSoC4/cyfitter_cfg.c **** 			{0x66u, 0x02u},
 666:.\Generated_Source\PSoC4/cyfitter_cfg.c **** 			{0x6Fu, 0x10u},
 667:.\Generated_Source\PSoC4/cyfitter_cfg.c **** 			{0x83u, 0x50u},
 668:.\Generated_Source\PSoC4/cyfitter_cfg.c **** 			{0x87u, 0x40u},
 669:.\Generated_Source\PSoC4/cyfitter_cfg.c **** 			{0x8Au, 0x02u},
 670:.\Generated_Source\PSoC4/cyfitter_cfg.c **** 			{0x8Du, 0x80u},
 671:.\Generated_Source\PSoC4/cyfitter_cfg.c **** 			{0xC0u, 0x20u},
 672:.\Generated_Source\PSoC4/cyfitter_cfg.c **** 			{0xD4u, 0x80u},
 673:.\Generated_Source\PSoC4/cyfitter_cfg.c **** 			{0xD6u, 0x20u},
 674:.\Generated_Source\PSoC4/cyfitter_cfg.c **** 			{0xD8u, 0x80u},
 675:.\Generated_Source\PSoC4/cyfitter_cfg.c **** 			{0xDAu, 0x80u},
 676:.\Generated_Source\PSoC4/cyfitter_cfg.c **** 			{0xE2u, 0x20u},
ARM GAS  C:\Users\Admin\AppData\Local\Temp\ccyrMX0g.s 			page 26


 677:.\Generated_Source\PSoC4/cyfitter_cfg.c **** 			{0xE4u, 0x80u},
 678:.\Generated_Source\PSoC4/cyfitter_cfg.c **** 			{0xE6u, 0x40u},
 679:.\Generated_Source\PSoC4/cyfitter_cfg.c **** 			{0x27u, 0x20u},
 680:.\Generated_Source\PSoC4/cyfitter_cfg.c **** 			{0x3Bu, 0x01u},
 681:.\Generated_Source\PSoC4/cyfitter_cfg.c **** 			{0x44u, 0x02u},
 682:.\Generated_Source\PSoC4/cyfitter_cfg.c **** 			{0x47u, 0x02u},
 683:.\Generated_Source\PSoC4/cyfitter_cfg.c **** 			{0x66u, 0x08u},
 684:.\Generated_Source\PSoC4/cyfitter_cfg.c **** 			{0x6Bu, 0x10u},
 685:.\Generated_Source\PSoC4/cyfitter_cfg.c **** 			{0x6Fu, 0x08u},
 686:.\Generated_Source\PSoC4/cyfitter_cfg.c **** 			{0x81u, 0x08u},
 687:.\Generated_Source\PSoC4/cyfitter_cfg.c **** 			{0x86u, 0x08u},
 688:.\Generated_Source\PSoC4/cyfitter_cfg.c **** 			{0x8Fu, 0x10u},
 689:.\Generated_Source\PSoC4/cyfitter_cfg.c **** 			{0xC8u, 0x01u},
 690:.\Generated_Source\PSoC4/cyfitter_cfg.c **** 			{0xCEu, 0x02u},
 691:.\Generated_Source\PSoC4/cyfitter_cfg.c **** 			{0xD0u, 0x05u},
 692:.\Generated_Source\PSoC4/cyfitter_cfg.c **** 			{0xD8u, 0x01u},
 693:.\Generated_Source\PSoC4/cyfitter_cfg.c **** 			{0xDAu, 0x03u},
 694:.\Generated_Source\PSoC4/cyfitter_cfg.c **** 			{0xE4u, 0x02u},
 695:.\Generated_Source\PSoC4/cyfitter_cfg.c **** 			{0x13u, 0x01u},
 696:.\Generated_Source\PSoC4/cyfitter_cfg.c **** 			{0x17u, 0x02u},
 697:.\Generated_Source\PSoC4/cyfitter_cfg.c **** 			{0x5Au, 0x01u},
 698:.\Generated_Source\PSoC4/cyfitter_cfg.c **** 			{0x5Du, 0x08u},
 699:.\Generated_Source\PSoC4/cyfitter_cfg.c **** 			{0x83u, 0x08u},
 700:.\Generated_Source\PSoC4/cyfitter_cfg.c **** 			{0x84u, 0x02u},
 701:.\Generated_Source\PSoC4/cyfitter_cfg.c **** 			{0x8Au, 0x01u},
 702:.\Generated_Source\PSoC4/cyfitter_cfg.c **** 			{0x8Fu, 0x20u},
 703:.\Generated_Source\PSoC4/cyfitter_cfg.c **** 			{0x97u, 0x01u},
 704:.\Generated_Source\PSoC4/cyfitter_cfg.c **** 			{0x99u, 0x08u},
 705:.\Generated_Source\PSoC4/cyfitter_cfg.c **** 			{0x9Bu, 0x20u},
 706:.\Generated_Source\PSoC4/cyfitter_cfg.c **** 			{0x9Cu, 0x02u},
 707:.\Generated_Source\PSoC4/cyfitter_cfg.c **** 			{0x9Fu, 0x02u},
 708:.\Generated_Source\PSoC4/cyfitter_cfg.c **** 			{0xA7u, 0x08u},
 709:.\Generated_Source\PSoC4/cyfitter_cfg.c **** 			{0xC4u, 0x0Cu},
 710:.\Generated_Source\PSoC4/cyfitter_cfg.c **** 			{0xD6u, 0x03u},
 711:.\Generated_Source\PSoC4/cyfitter_cfg.c **** 			{0xE4u, 0x01u},
 712:.\Generated_Source\PSoC4/cyfitter_cfg.c **** 			{0xE6u, 0x08u},
 713:.\Generated_Source\PSoC4/cyfitter_cfg.c **** 			{0x10u, 0x0Eu},
 714:.\Generated_Source\PSoC4/cyfitter_cfg.c **** 			{0x11u, 0x01u},
 715:.\Generated_Source\PSoC4/cyfitter_cfg.c **** 		};
 716:.\Generated_Source\PSoC4/cyfitter_cfg.c **** 
 717:.\Generated_Source\PSoC4/cyfitter_cfg.c **** 
 718:.\Generated_Source\PSoC4/cyfitter_cfg.c **** 
 719:.\Generated_Source\PSoC4/cyfitter_cfg.c **** 		CYPACKED typedef struct {
 720:.\Generated_Source\PSoC4/cyfitter_cfg.c **** 			void CYFAR *address;
 721:.\Generated_Source\PSoC4/cyfitter_cfg.c **** 			uint16 size;
 722:.\Generated_Source\PSoC4/cyfitter_cfg.c **** 		} CYPACKED_ATTR cfg_memset_t;
 723:.\Generated_Source\PSoC4/cyfitter_cfg.c **** 
 724:.\Generated_Source\PSoC4/cyfitter_cfg.c **** 		static const cfg_memset_t CYCODE cfg_memset_list [] = {
 725:.\Generated_Source\PSoC4/cyfitter_cfg.c **** 			/* address, size */
 726:.\Generated_Source\PSoC4/cyfitter_cfg.c **** 			{(void CYFAR *)(CYDEV_UDB_P0_U0_BASE), 1024u},
 727:.\Generated_Source\PSoC4/cyfitter_cfg.c **** 			{(void CYFAR *)(CYDEV_UDB_DSI0_BASE), 1024u},
 728:.\Generated_Source\PSoC4/cyfitter_cfg.c **** 		};
 729:.\Generated_Source\PSoC4/cyfitter_cfg.c **** 
 730:.\Generated_Source\PSoC4/cyfitter_cfg.c **** 		uint8 CYDATA i;
 731:.\Generated_Source\PSoC4/cyfitter_cfg.c **** 
 732:.\Generated_Source\PSoC4/cyfitter_cfg.c **** 		/* Zero out critical memory blocks before beginning configuration */
 733:.\Generated_Source\PSoC4/cyfitter_cfg.c **** 		for (i = 0u; i < (sizeof(cfg_memset_list)/sizeof(cfg_memset_list[0])); i++)
ARM GAS  C:\Users\Admin\AppData\Local\Temp\ccyrMX0g.s 			page 27


 744              		.loc 1 733 0
 745 0258 FB1D     		add	r3, r7, #7
 746 025a 0022     		mov	r2, #0
 747 025c 1A70     		strb	r2, [r3]
 748 025e 23E0     		b	.L30
 749              	.L31:
 750              	.LBB4:
 734:.\Generated_Source\PSoC4/cyfitter_cfg.c **** 		{
 735:.\Generated_Source\PSoC4/cyfitter_cfg.c **** 			const cfg_memset_t CYCODE * CYDATA ms = &cfg_memset_list[i];
 751              		.loc 1 735 0 discriminator 2
 752 0260 FB1D     		add	r3, r7, #7
 753 0262 1A78     		ldrb	r2, [r3]
 754 0264 131C     		mov	r3, r2
 755 0266 5B00     		lsl	r3, r3, #1
 756 0268 9B18     		add	r3, r3, r2
 757 026a 5B00     		lsl	r3, r3, #1
 758 026c 554A     		ldr	r2, .L32+8
 759 026e 9B18     		add	r3, r3, r2
 760 0270 3B60     		str	r3, [r7]
 736:.\Generated_Source\PSoC4/cyfitter_cfg.c **** 			CYMEMZERO(ms->address, (size_t)(uint32)(ms->size));
 761              		.loc 1 736 0 discriminator 2
 762 0272 3B68     		ldr	r3, [r7]
 763 0274 1A78     		ldrb	r2, [r3]
 764 0276 5978     		ldrb	r1, [r3, #1]
 765 0278 0902     		lsl	r1, r1, #8
 766 027a 0A43     		orr	r2, r1
 767 027c 9978     		ldrb	r1, [r3, #2]
 768 027e 0904     		lsl	r1, r1, #16
 769 0280 0A43     		orr	r2, r1
 770 0282 DB78     		ldrb	r3, [r3, #3]
 771 0284 1B06     		lsl	r3, r3, #24
 772 0286 1343     		orr	r3, r2
 773 0288 1A1C     		mov	r2, r3
 774 028a 3B68     		ldr	r3, [r7]
 775 028c 1979     		ldrb	r1, [r3, #4]
 776 028e 5B79     		ldrb	r3, [r3, #5]
 777 0290 1B02     		lsl	r3, r3, #8
 778 0292 0B43     		orr	r3, r1
 779 0294 9BB2     		uxth	r3, r3
 780 0296 101C     		mov	r0, r2
 781 0298 191C     		mov	r1, r3
 782 029a FFF7FEFF 		bl	CYMEMZERO
 783              	.LBE4:
 733:.\Generated_Source\PSoC4/cyfitter_cfg.c **** 		for (i = 0u; i < (sizeof(cfg_memset_list)/sizeof(cfg_memset_list[0])); i++)
 784              		.loc 1 733 0 discriminator 2
 785 029e FB1D     		add	r3, r7, #7
 786 02a0 1A78     		ldrb	r2, [r3]
 787 02a2 FB1D     		add	r3, r7, #7
 788 02a4 0132     		add	r2, r2, #1
 789 02a6 1A70     		strb	r2, [r3]
 790              	.L30:
 733:.\Generated_Source\PSoC4/cyfitter_cfg.c **** 		for (i = 0u; i < (sizeof(cfg_memset_list)/sizeof(cfg_memset_list[0])); i++)
 791              		.loc 1 733 0 is_stmt 0 discriminator 1
 792 02a8 FB1D     		add	r3, r7, #7
 793 02aa 1B78     		ldrb	r3, [r3]
 794 02ac 012B     		cmp	r3, #1
 795 02ae D7D9     		bls	.L31
ARM GAS  C:\Users\Admin\AppData\Local\Temp\ccyrMX0g.s 			page 28


 737:.\Generated_Source\PSoC4/cyfitter_cfg.c **** 		}
 738:.\Generated_Source\PSoC4/cyfitter_cfg.c **** 
 739:.\Generated_Source\PSoC4/cyfitter_cfg.c **** 		cfg_write_bytes32(cy_cfg_addr_table, cy_cfg_data_table);
 796              		.loc 1 739 0 is_stmt 1
 797 02b0 454A     		ldr	r2, .L32+12
 798 02b2 464B     		ldr	r3, .L32+16
 799 02b4 101C     		mov	r0, r2
 800 02b6 191C     		mov	r1, r3
 801 02b8 FFF7FEFF 		bl	cfg_write_bytes32
 740:.\Generated_Source\PSoC4/cyfitter_cfg.c **** 
 741:.\Generated_Source\PSoC4/cyfitter_cfg.c **** 		/* Perform normal device configuration. Order is not critical for these items. */
 742:.\Generated_Source\PSoC4/cyfitter_cfg.c **** 		CY_SET_XTND_REG16((void CYFAR *)(CYREG_UDB_BCTL0_DRV), 0x0E00u);
 802              		.loc 1 742 0
 803 02bc 444B     		ldr	r3, .L32+20
 804 02be E022     		mov	r2, #224
 805 02c0 1201     		lsl	r2, r2, #4
 806 02c2 1A80     		strh	r2, [r3]
 743:.\Generated_Source\PSoC4/cyfitter_cfg.c **** 		CY_SET_XTND_REG8((void CYFAR *)(CYREG_UDB_BCTL0_DRV + 0x2u), 0x01u);
 807              		.loc 1 743 0
 808 02c4 434B     		ldr	r3, .L32+24
 809 02c6 0122     		mov	r2, #1
 810 02c8 1A70     		strb	r2, [r3]
 744:.\Generated_Source\PSoC4/cyfitter_cfg.c **** 
 745:.\Generated_Source\PSoC4/cyfitter_cfg.c **** 		/* HSIOM Starting address: CYDEV_HSIOM_BASE */
 746:.\Generated_Source\PSoC4/cyfitter_cfg.c **** 		CY_SET_XTND_REG32((void CYFAR *)(CYREG_HSIOM_PORT_SEL1), 0x30903300u);
 811              		.loc 1 746 0
 812 02ca 434B     		ldr	r3, .L32+28
 813 02cc 434A     		ldr	r2, .L32+32
 814 02ce 1A60     		str	r2, [r3]
 747:.\Generated_Source\PSoC4/cyfitter_cfg.c **** 		CY_SET_XTND_REG32((void CYFAR *)(CYREG_HSIOM_PORT_SEL2), 0x03000000u);
 815              		.loc 1 747 0
 816 02d0 434B     		ldr	r3, .L32+36
 817 02d2 C022     		mov	r2, #192
 818 02d4 9204     		lsl	r2, r2, #18
 819 02d6 1A60     		str	r2, [r3]
 748:.\Generated_Source\PSoC4/cyfitter_cfg.c **** 		CY_SET_XTND_REG32((void CYFAR *)(CYREG_HSIOM_PORT_SEL3), 0x33000000u);
 820              		.loc 1 748 0
 821 02d8 424B     		ldr	r3, .L32+40
 822 02da CC22     		mov	r2, #204
 823 02dc 9205     		lsl	r2, r2, #22
 824 02de 1A60     		str	r2, [r3]
 749:.\Generated_Source\PSoC4/cyfitter_cfg.c **** 
 750:.\Generated_Source\PSoC4/cyfitter_cfg.c **** 		/* FORCED_HSIOM Starting address: CYDEV_HSIOM_PORT_SEL0 */
 751:.\Generated_Source\PSoC4/cyfitter_cfg.c **** 		CY_SET_XTND_REG32((void CYFAR *)(CYREG_HSIOM_PORT_SEL0), 0x00000000u);
 825              		.loc 1 751 0
 826 02e0 414B     		ldr	r3, .L32+44
 827 02e2 0022     		mov	r2, #0
 828 02e4 1A60     		str	r2, [r3]
 752:.\Generated_Source\PSoC4/cyfitter_cfg.c **** 
 753:.\Generated_Source\PSoC4/cyfitter_cfg.c **** 		/* IOPINS0_0 Starting address: CYDEV_GPIO_PRT0_PC */
 754:.\Generated_Source\PSoC4/cyfitter_cfg.c **** 		CY_SET_XTND_REG32((void CYFAR *)(CYREG_GPIO_PRT0_PC), 0x00000000u);
 829              		.loc 1 754 0
 830 02e6 414B     		ldr	r3, .L32+48
 831 02e8 0022     		mov	r2, #0
 832 02ea 1A60     		str	r2, [r3]
 755:.\Generated_Source\PSoC4/cyfitter_cfg.c **** 
 756:.\Generated_Source\PSoC4/cyfitter_cfg.c **** 		/* IOPINS0_1 Starting address: CYDEV_GPIO_PRT1_DR */
ARM GAS  C:\Users\Admin\AppData\Local\Temp\ccyrMX0g.s 			page 29


 757:.\Generated_Source\PSoC4/cyfitter_cfg.c **** 		CY_SET_XTND_REG32((void CYFAR *)(CYREG_GPIO_PRT1_DR), 0x000000ACu);
 833              		.loc 1 757 0
 834 02ec 404B     		ldr	r3, .L32+52
 835 02ee AC22     		mov	r2, #172
 836 02f0 1A60     		str	r2, [r3]
 758:.\Generated_Source\PSoC4/cyfitter_cfg.c **** 		CY_SET_XTND_REG32((void CYFAR *)(CYREG_GPIO_PRT1_PC), 0x00C30D88u);
 837              		.loc 1 758 0
 838 02f2 404B     		ldr	r3, .L32+56
 839 02f4 404A     		ldr	r2, .L32+60
 840 02f6 1A60     		str	r2, [r3]
 759:.\Generated_Source\PSoC4/cyfitter_cfg.c **** 		CY_SET_XTND_REG32((void CYFAR *)(CYREG_GPIO_PRT1_PC2), 0x00000020u);
 841              		.loc 1 759 0
 842 02f8 404B     		ldr	r3, .L32+64
 843 02fa 2022     		mov	r2, #32
 844 02fc 1A60     		str	r2, [r3]
 760:.\Generated_Source\PSoC4/cyfitter_cfg.c **** 
 761:.\Generated_Source\PSoC4/cyfitter_cfg.c **** 		/* IOPINS0_2 Starting address: CYDEV_GPIO_PRT2_DR */
 762:.\Generated_Source\PSoC4/cyfitter_cfg.c **** 		CY_SET_XTND_REG32((void CYFAR *)(CYREG_GPIO_PRT2_DR), 0x0000007Du);
 845              		.loc 1 762 0
 846 02fe 404B     		ldr	r3, .L32+68
 847 0300 7D22     		mov	r2, #125
 848 0302 1A60     		str	r2, [r3]
 763:.\Generated_Source\PSoC4/cyfitter_cfg.c **** 		CY_SET_XTND_REG32((void CYFAR *)(CYREG_GPIO_PRT2_PC), 0x00040000u);
 849              		.loc 1 763 0
 850 0304 3F4B     		ldr	r3, .L32+72
 851 0306 8022     		mov	r2, #128
 852 0308 D202     		lsl	r2, r2, #11
 853 030a 1A60     		str	r2, [r3]
 764:.\Generated_Source\PSoC4/cyfitter_cfg.c **** 		CY_SET_XTND_REG32((void CYFAR *)(CYREG_GPIO_PRT2_PC2), 0x0000003Du);
 854              		.loc 1 764 0
 855 030c 3E4B     		ldr	r3, .L32+76
 856 030e 3D22     		mov	r2, #61
 857 0310 1A60     		str	r2, [r3]
 765:.\Generated_Source\PSoC4/cyfitter_cfg.c **** 
 766:.\Generated_Source\PSoC4/cyfitter_cfg.c **** 		/* IOPINS0_3 Starting address: CYDEV_GPIO_PRT3_DR */
 767:.\Generated_Source\PSoC4/cyfitter_cfg.c **** 		CY_SET_XTND_REG32((void CYFAR *)(CYREG_GPIO_PRT3_DR), 0x000000C0u);
 858              		.loc 1 767 0
 859 0312 3E4B     		ldr	r3, .L32+80
 860 0314 C022     		mov	r2, #192
 861 0316 1A60     		str	r2, [r3]
 768:.\Generated_Source\PSoC4/cyfitter_cfg.c **** 		CY_SET_XTND_REG32((void CYFAR *)(CYREG_GPIO_PRT3_PC), 0x00240000u);
 862              		.loc 1 768 0
 863 0318 3D4B     		ldr	r3, .L32+84
 864 031a 9022     		mov	r2, #144
 865 031c 9203     		lsl	r2, r2, #14
 866 031e 1A60     		str	r2, [r3]
 769:.\Generated_Source\PSoC4/cyfitter_cfg.c **** 
 770:.\Generated_Source\PSoC4/cyfitter_cfg.c **** 		/* UDB_PA_1 Starting address: CYDEV_UDB_PA1_BASE */
 771:.\Generated_Source\PSoC4/cyfitter_cfg.c **** 		CY_SET_XTND_REG32((void CYFAR *)(CYDEV_UDB_PA1_BASE), 0x00990004u);
 867              		.loc 1 771 0
 868 0320 3C4B     		ldr	r3, .L32+88
 869 0322 3D4A     		ldr	r2, .L32+92
 870 0324 1A60     		str	r2, [r3]
 772:.\Generated_Source\PSoC4/cyfitter_cfg.c **** 		CY_SET_XTND_REG32((void CYFAR *)(CYREG_UDB_PA1_CFG4), 0x00080000u);
 871              		.loc 1 772 0
 872 0326 3D4B     		ldr	r3, .L32+96
 873 0328 8022     		mov	r2, #128
ARM GAS  C:\Users\Admin\AppData\Local\Temp\ccyrMX0g.s 			page 30


 874 032a 1203     		lsl	r2, r2, #12
 875 032c 1A60     		str	r2, [r3]
 773:.\Generated_Source\PSoC4/cyfitter_cfg.c **** 		CY_SET_XTND_REG32((void CYFAR *)(CYREG_UDB_PA1_CFG8), 0xC0E00000u);
 876              		.loc 1 773 0
 877 032e 3C4B     		ldr	r3, .L32+100
 878 0330 3C4A     		ldr	r2, .L32+104
 879 0332 1A60     		str	r2, [r3]
 774:.\Generated_Source\PSoC4/cyfitter_cfg.c **** 
 775:.\Generated_Source\PSoC4/cyfitter_cfg.c **** 		/* UDB_PA_2 Starting address: CYDEV_UDB_PA2_BASE */
 776:.\Generated_Source\PSoC4/cyfitter_cfg.c **** 		CY_SET_XTND_REG32((void CYFAR *)(CYDEV_UDB_PA2_BASE), 0x00990000u);
 880              		.loc 1 776 0
 881 0334 3C4B     		ldr	r3, .L32+108
 882 0336 9922     		mov	r2, #153
 883 0338 1204     		lsl	r2, r2, #16
 884 033a 1A60     		str	r2, [r3]
 777:.\Generated_Source\PSoC4/cyfitter_cfg.c **** 		CY_SET_XTND_REG32((void CYFAR *)(CYREG_UDB_PA2_CFG8), 0x30000000u);
 885              		.loc 1 777 0
 886 033c 3B4B     		ldr	r3, .L32+112
 887 033e C022     		mov	r2, #192
 888 0340 9205     		lsl	r2, r2, #22
 889 0342 1A60     		str	r2, [r3]
 778:.\Generated_Source\PSoC4/cyfitter_cfg.c **** 
 779:.\Generated_Source\PSoC4/cyfitter_cfg.c **** 		/* UDB_PA_3 Starting address: CYDEV_UDB_PA3_BASE */
 780:.\Generated_Source\PSoC4/cyfitter_cfg.c **** 		CY_SET_XTND_REG32((void CYFAR *)(CYDEV_UDB_PA3_BASE), 0x00990000u);
 890              		.loc 1 780 0
 891 0344 3A4B     		ldr	r3, .L32+116
 892 0346 9922     		mov	r2, #153
 893 0348 1204     		lsl	r2, r2, #16
 894 034a 1A60     		str	r2, [r3]
 781:.\Generated_Source\PSoC4/cyfitter_cfg.c **** 		CY_SET_XTND_REG32((void CYFAR *)(CYREG_UDB_PA3_CFG8), 0x40000000u);
 895              		.loc 1 781 0
 896 034c 394B     		ldr	r3, .L32+120
 897 034e 8022     		mov	r2, #128
 898 0350 D205     		lsl	r2, r2, #23
 899 0352 1A60     		str	r2, [r3]
 782:.\Generated_Source\PSoC4/cyfitter_cfg.c **** 
 783:.\Generated_Source\PSoC4/cyfitter_cfg.c **** 		/* TCPWM_CNT0 Starting address: CYDEV_TCPWM_CNT0_TR_CTRL0 */
 784:.\Generated_Source\PSoC4/cyfitter_cfg.c **** 		CY_SET_XTND_REG32((void CYFAR *)(CYREG_TCPWM_CNT0_TR_CTRL0), 0x000007E7u);
 900              		.loc 1 784 0
 901 0354 384B     		ldr	r3, .L32+124
 902 0356 394A     		ldr	r2, .L32+128
 903 0358 1A60     		str	r2, [r3]
 785:.\Generated_Source\PSoC4/cyfitter_cfg.c **** 
 786:.\Generated_Source\PSoC4/cyfitter_cfg.c **** 		/* TCPWM_CNT1 Starting address: CYDEV_TCPWM_CNT1_TR_CTRL0 */
 787:.\Generated_Source\PSoC4/cyfitter_cfg.c **** 		CY_SET_XTND_REG32((void CYFAR *)(CYREG_TCPWM_CNT1_TR_CTRL0), 0x000007F7u);
 904              		.loc 1 787 0
 905 035a 394B     		ldr	r3, .L32+132
 906 035c 394A     		ldr	r2, .L32+136
 907 035e 1A60     		str	r2, [r3]
 788:.\Generated_Source\PSoC4/cyfitter_cfg.c **** 
 789:.\Generated_Source\PSoC4/cyfitter_cfg.c **** 		/* TCPWM_CNT2 Starting address: CYDEV_TCPWM_CNT2_TR_CTRL0 */
 790:.\Generated_Source\PSoC4/cyfitter_cfg.c **** 		CY_SET_XTND_REG32((void CYFAR *)(CYREG_TCPWM_CNT2_TR_CTRL0), 0x00000797u);
 908              		.loc 1 790 0
 909 0360 394B     		ldr	r3, .L32+140
 910 0362 3A4A     		ldr	r2, .L32+144
 911 0364 1A60     		str	r2, [r3]
 791:.\Generated_Source\PSoC4/cyfitter_cfg.c **** 
ARM GAS  C:\Users\Admin\AppData\Local\Temp\ccyrMX0g.s 			page 31


 792:.\Generated_Source\PSoC4/cyfitter_cfg.c **** 		/* TCPWM_CNT3 Starting address: CYDEV_TCPWM_CNT3_TR_CTRL0 */
 793:.\Generated_Source\PSoC4/cyfitter_cfg.c **** 		CY_SET_XTND_REG32((void CYFAR *)(CYREG_TCPWM_CNT3_TR_CTRL0), 0x00000747u);
 912              		.loc 1 793 0
 913 0366 3A4B     		ldr	r3, .L32+148
 914 0368 3A4A     		ldr	r2, .L32+152
 915 036a 1A60     		str	r2, [r3]
 794:.\Generated_Source\PSoC4/cyfitter_cfg.c **** 
 795:.\Generated_Source\PSoC4/cyfitter_cfg.c **** 		/* INT_SELECT Starting address: CYDEV_CPUSS_INT_SEL */
 796:.\Generated_Source\PSoC4/cyfitter_cfg.c **** 		CY_SET_XTND_REG32((void CYFAR *)(CYREG_CPUSS_INT_SEL), 0x00000002u);
 916              		.loc 1 796 0
 917 036c 3A4B     		ldr	r3, .L32+156
 918 036e 0222     		mov	r2, #2
 919 0370 1A60     		str	r2, [r3]
 797:.\Generated_Source\PSoC4/cyfitter_cfg.c **** 
 798:.\Generated_Source\PSoC4/cyfitter_cfg.c **** 		/* INT_CONFIG Starting address: CYDEV_UDB_INT_CFG */
 799:.\Generated_Source\PSoC4/cyfitter_cfg.c **** 		CY_SET_XTND_REG32((void CYFAR *)(CYREG_UDB_INT_CFG), 0x00000002u);
 920              		.loc 1 799 0
 921 0372 3A4B     		ldr	r3, .L32+160
 922 0374 0222     		mov	r2, #2
 923 0376 1A60     		str	r2, [r3]
 800:.\Generated_Source\PSoC4/cyfitter_cfg.c **** 
 801:.\Generated_Source\PSoC4/cyfitter_cfg.c **** 		/* Enable digital routing */
 802:.\Generated_Source\PSoC4/cyfitter_cfg.c **** 		CY_SET_XTND_REG8((void *)CYREG_UDB_UDBIF_BANK_CTL, CY_GET_XTND_REG8((void *)CYREG_UDB_UDBIF_BANK_
 924              		.loc 1 802 0
 925 0378 394B     		ldr	r3, .L32+164
 926 037a 394A     		ldr	r2, .L32+164
 927 037c 1278     		ldrb	r2, [r2]
 928 037e D2B2     		uxtb	r2, r2
 929 0380 0221     		mov	r1, #2
 930 0382 0A43     		orr	r2, r1
 931 0384 D2B2     		uxtb	r2, r2
 932 0386 1A70     		strb	r2, [r3]
 803:.\Generated_Source\PSoC4/cyfitter_cfg.c **** 
 804:.\Generated_Source\PSoC4/cyfitter_cfg.c **** 		/* Enable UDB array */
 805:.\Generated_Source\PSoC4/cyfitter_cfg.c **** 		CY_SET_XTND_REG8((void *)CYREG_UDB_UDBIF_WAIT_CFG, (uint8)((CY_GET_XTND_REG8((void *)CYREG_UDB_UD
 933              		.loc 1 805 0
 934 0388 364B     		ldr	r3, .L32+168
 935 038a 364A     		ldr	r2, .L32+168
 936 038c 1278     		ldrb	r2, [r2]
 937 038e D2B2     		uxtb	r2, r2
 938 0390 3C21     		mov	r1, #60
 939 0392 8A43     		bic	r2, r1
 940 0394 D2B2     		uxtb	r2, r2
 941 0396 1421     		mov	r1, #20
 942 0398 0A43     		orr	r2, r1
 943 039a D2B2     		uxtb	r2, r2
 944 039c 1A70     		strb	r2, [r3]
 806:.\Generated_Source\PSoC4/cyfitter_cfg.c **** 		CY_SET_XTND_REG8((void *)CYREG_UDB_UDBIF_BANK_CTL, (uint8)(CY_GET_XTND_REG8((void *)CYREG_UDB_UDB
 945              		.loc 1 806 0
 946 039e 304B     		ldr	r3, .L32+164
 947 03a0 2F4A     		ldr	r2, .L32+164
 948 03a2 1278     		ldrb	r2, [r2]
 949 03a4 D2B2     		uxtb	r2, r2
 950 03a6 1621     		mov	r1, #22
 951 03a8 0A43     		orr	r2, r1
 952 03aa D2B2     		uxtb	r2, r2
 953 03ac 1A70     		strb	r2, [r3]
ARM GAS  C:\Users\Admin\AppData\Local\Temp\ccyrMX0g.s 			page 32


 954              	.LBE3:
 807:.\Generated_Source\PSoC4/cyfitter_cfg.c **** 	}
 808:.\Generated_Source\PSoC4/cyfitter_cfg.c **** 
 809:.\Generated_Source\PSoC4/cyfitter_cfg.c **** 	/* Setup clocks based on selections from Clock DWR */
 810:.\Generated_Source\PSoC4/cyfitter_cfg.c **** 	ClockSetup();
 955              		.loc 1 810 0
 956 03ae FFF779FE 		bl	ClockSetup
 811:.\Generated_Source\PSoC4/cyfitter_cfg.c **** 
 812:.\Generated_Source\PSoC4/cyfitter_cfg.c **** 	/* Perform basic analog initialization to defaults */
 813:.\Generated_Source\PSoC4/cyfitter_cfg.c **** 	AnalogSetDefault();
 957              		.loc 1 813 0
 958 03b2 FFF7FEFF 		bl	AnalogSetDefault
 814:.\Generated_Source\PSoC4/cyfitter_cfg.c **** 
 815:.\Generated_Source\PSoC4/cyfitter_cfg.c **** }
 959              		.loc 1 815 0
 960 03b6 BD46     		mov	sp, r7
 961 03b8 02B0     		add	sp, sp, #8
 962              		@ sp needed
 963 03ba 80BD     		pop	{r7, pc}
 964              	.L33:
 965              		.align	2
 966              	.L32:
 967 03bc 6CF02E40 		.word	1076818028
 968 03c0 1C700F40 		.word	1074753564
 969 03c4 04000000 		.word	cfg_memset_list.4778
 970 03c8 10000000 		.word	cy_cfg_addr_table.4772
 971 03cc 34000000 		.word	cy_cfg_data_table.4773
 972 03d0 00600F40 		.word	1074749440
 973 03d4 02600F40 		.word	1074749442
 974 03d8 00010240 		.word	1073873152
 975 03dc 00339030 		.word	814756608
 976 03e0 00020240 		.word	1073873408
 977 03e4 00030240 		.word	1073873664
 978 03e8 00000240 		.word	1073872896
 979 03ec 08000440 		.word	1074003976
 980 03f0 00010440 		.word	1074004224
 981 03f4 08010440 		.word	1074004232
 982 03f8 880DC300 		.word	12782984
 983 03fc 18010440 		.word	1074004248
 984 0400 00020440 		.word	1074004480
 985 0404 08020440 		.word	1074004488
 986 0408 18020440 		.word	1074004504
 987 040c 00030440 		.word	1074004736
 988 0410 08030440 		.word	1074004744
 989 0414 10500F40 		.word	1074745360
 990 0418 04009900 		.word	10027012
 991 041c 14500F40 		.word	1074745364
 992 0420 18500F40 		.word	1074745368
 993 0424 0000E0C0 		.word	-1059061760
 994 0428 20500F40 		.word	1074745376
 995 042c 28500F40 		.word	1074745384
 996 0430 30500F40 		.word	1074745392
 997 0434 38500F40 		.word	1074745400
 998 0438 20012040 		.word	1075839264
 999 043c E7070000 		.word	2023
 1000 0440 60012040 		.word	1075839328
 1001 0444 F7070000 		.word	2039
ARM GAS  C:\Users\Admin\AppData\Local\Temp\ccyrMX0g.s 			page 33


 1002 0448 A0012040 		.word	1075839392
 1003 044c 97070000 		.word	1943
 1004 0450 E0012040 		.word	1075839456
 1005 0454 47070000 		.word	1863
 1006 0458 20001040 		.word	1074790432
 1007 045c 00800F40 		.word	1074757632
 1008 0460 00700F40 		.word	1074753536
 1009 0464 01700F40 		.word	1074753537
 1010              		.cfi_endproc
 1011              	.LFE11:
 1012              		.size	cyfitter_cfg, .-cyfitter_cfg
 1013              		.data
 1014              		.align	2
 1015              		.type	imo_trim_table.4746, %object
 1016              		.size	imo_trim_table.4746, 4
 1017              	imo_trim_table.4746:
 1018 0000 C0F1FF0F 		.word	268431808
 1019              		.section	.rodata
 1020              		.align	2
 1021              		.type	IMO_TRIM_FREQ_TABLE_ENTRIES.4747, %object
 1022              		.size	IMO_TRIM_FREQ_TABLE_ENTRIES.4747, 4
 1023              	IMO_TRIM_FREQ_TABLE_ENTRIES.4747:
 1024 0000 04000000 		.word	4
 1025              		.align	2
 1026              		.type	cfg_memset_list.4778, %object
 1027              		.size	cfg_memset_list.4778, 12
 1028              	cfg_memset_list.4778:
 1029 0004 00300F40 		.word	1074737152
 1030 0008 0004     		.short	1024
 1031 000a 00400F40 		.4byte	1074741248
 1032 000e 0004     		.short	1024
 1033              		.align	2
 1034              		.type	cy_cfg_addr_table.4772, %object
 1035              		.size	cy_cfg_addr_table.4772, 36
 1036              	cy_cfg_addr_table.4772:
 1037 0010 01000F40 		.word	1074724865
 1038 0014 45300F40 		.word	1074737221
 1039 0018 26310F40 		.word	1074737446
 1040 001c 4B320F40 		.word	1074737739
 1041 0020 35330F40 		.word	1074737973
 1042 0024 11410F40 		.word	1074741521
 1043 0028 10420F40 		.word	1074741776
 1044 002c 12430F40 		.word	1074742034
 1045 0030 02600F40 		.word	1074749442
 1046              		.align	2
 1047              		.type	cy_cfg_data_table.4773, %object
 1048              		.size	cy_cfg_data_table.4773, 578
 1049              	cy_cfg_data_table.4773:
 1050 0034 83       		.byte	-125
 1051 0035 0D       		.byte	13
 1052 0036 05       		.byte	5
 1053 0037 04       		.byte	4
 1054 0038 07       		.byte	7
 1055 0039 08       		.byte	8
 1056 003a 09       		.byte	9
 1057 003b 01       		.byte	1
 1058 003c 0B       		.byte	11
ARM GAS  C:\Users\Admin\AppData\Local\Temp\ccyrMX0g.s 			page 34


 1059 003d 02       		.byte	2
 1060 003e 0D       		.byte	13
 1061 003f 04       		.byte	4
 1062 0040 15       		.byte	21
 1063 0041 01       		.byte	1
 1064 0042 17       		.byte	23
 1065 0043 02       		.byte	2
 1066 0044 19       		.byte	25
 1067 0045 01       		.byte	1
 1068 0046 25       		.byte	37
 1069 0047 04       		.byte	4
 1070 0048 27       		.byte	39
 1071 0049 08       		.byte	8
 1072 004a 31       		.byte	49
 1073 004b 03       		.byte	3
 1074 004c 35       		.byte	53
 1075 004d 0C       		.byte	12
 1076 004e 39       		.byte	57
 1077 004f 22       		.byte	34
 1078 0050 3A       		.byte	58
 1079 0051 0C       		.byte	12
 1080 0052 40       		.byte	64
 1081 0053 03       		.byte	3
 1082 0054 46       		.byte	70
 1083 0055 54       		.byte	84
 1084 0056 47       		.byte	71
 1085 0057 01       		.byte	1
 1086 0058 48       		.byte	72
 1087 0059 1D       		.byte	29
 1088 005a 49       		.byte	73
 1089 005b FF       		.byte	-1
 1090 005c 4A       		.byte	74
 1091 005d FF       		.byte	-1
 1092 005e 4B       		.byte	75
 1093 005f FF       		.byte	-1
 1094 0060 4C       		.byte	76
 1095 0061 02       		.byte	2
 1096 0062 4D       		.byte	77
 1097 0063 20       		.byte	32
 1098 0064 4E       		.byte	78
 1099 0065 F0       		.byte	-16
 1100 0066 52       		.byte	82
 1101 0067 07       		.byte	7
 1102 0068 58       		.byte	88
 1103 0069 04       		.byte	4
 1104 006a 59       		.byte	89
 1105 006b 0F       		.byte	15
 1106 006c 5A       		.byte	90
 1107 006d 0F       		.byte	15
 1108 006e 5B       		.byte	91
 1109 006f 04       		.byte	4
 1110 0070 5C       		.byte	92
 1111 0071 31       		.byte	49
 1112 0072 5D       		.byte	93
 1113 0073 33       		.byte	51
 1114 0074 5F       		.byte	95
 1115 0075 01       		.byte	1
ARM GAS  C:\Users\Admin\AppData\Local\Temp\ccyrMX0g.s 			page 35


 1116 0076 62       		.byte	98
 1117 0077 48       		.byte	72
 1118 0078 63       		.byte	99
 1119 0079 AD       		.byte	-83
 1120 007a 64       		.byte	100
 1121 007b C0       		.byte	-64
 1122 007c 66       		.byte	102
 1123 007d C0       		.byte	-64
 1124 007e 83       		.byte	-125
 1125 007f 02       		.byte	2
 1126 0080 8F       		.byte	-113
 1127 0081 01       		.byte	1
 1128 0082 90       		.byte	-112
 1129 0083 01       		.byte	1
 1130 0084 92       		.byte	-110
 1131 0085 02       		.byte	2
 1132 0086 94       		.byte	-108
 1133 0087 01       		.byte	1
 1134 0088 A4       		.byte	-92
 1135 0089 01       		.byte	1
 1136 008a A6       		.byte	-90
 1137 008b 02       		.byte	2
 1138 008c B4       		.byte	-76
 1139 008d 03       		.byte	3
 1140 008e B5       		.byte	-75
 1141 008f 01       		.byte	1
 1142 0090 B7       		.byte	-73
 1143 0091 02       		.byte	2
 1144 0092 B8       		.byte	-72
 1145 0093 28       		.byte	40
 1146 0094 BE       		.byte	-66
 1147 0095 04       		.byte	4
 1148 0096 C0       		.byte	-64
 1149 0097 03       		.byte	3
 1150 0098 C6       		.byte	-58
 1151 0099 01       		.byte	1
 1152 009a C8       		.byte	-56
 1153 009b 0C       		.byte	12
 1154 009c C9       		.byte	-55
 1155 009d FF       		.byte	-1
 1156 009e CA       		.byte	-54
 1157 009f FF       		.byte	-1
 1158 00a0 CB       		.byte	-53
 1159 00a1 FF       		.byte	-1
 1160 00a2 CC       		.byte	-52
 1161 00a3 02       		.byte	2
 1162 00a4 CD       		.byte	-51
 1163 00a5 20       		.byte	32
 1164 00a6 CE       		.byte	-50
 1165 00a7 F0       		.byte	-16
 1166 00a8 D2       		.byte	-46
 1167 00a9 03       		.byte	3
 1168 00aa D8       		.byte	-40
 1169 00ab 0E       		.byte	14
 1170 00ac D9       		.byte	-39
 1171 00ad 04       		.byte	4
 1172 00ae DA       		.byte	-38
ARM GAS  C:\Users\Admin\AppData\Local\Temp\ccyrMX0g.s 			page 36


 1173 00af 0E       		.byte	14
 1174 00b0 DB       		.byte	-37
 1175 00b1 04       		.byte	4
 1176 00b2 DC       		.byte	-36
 1177 00b3 33       		.byte	51
 1178 00b4 DD       		.byte	-35
 1179 00b5 33       		.byte	51
 1180 00b6 DF       		.byte	-33
 1181 00b7 01       		.byte	1
 1182 00b8 E2       		.byte	-30
 1183 00b9 48       		.byte	72
 1184 00ba E3       		.byte	-29
 1185 00bb AD       		.byte	-83
 1186 00bc E4       		.byte	-28
 1187 00bd C0       		.byte	-64
 1188 00be E6       		.byte	-26
 1189 00bf C0       		.byte	-64
 1190 00c0 0F       		.byte	15
 1191 00c1 A0       		.byte	-96
 1192 00c2 17       		.byte	23
 1193 00c3 04       		.byte	4
 1194 00c4 18       		.byte	24
 1195 00c5 20       		.byte	32
 1196 00c6 1D       		.byte	29
 1197 00c7 08       		.byte	8
 1198 00c8 1E       		.byte	30
 1199 00c9 08       		.byte	8
 1200 00ca 1F       		.byte	31
 1201 00cb 08       		.byte	8
 1202 00cc 21       		.byte	33
 1203 00cd 20       		.byte	32
 1204 00ce 22       		.byte	34
 1205 00cf 01       		.byte	1
 1206 00d0 26       		.byte	38
 1207 00d1 60       		.byte	96
 1208 00d2 2B       		.byte	43
 1209 00d3 20       		.byte	32
 1210 00d4 30       		.byte	48
 1211 00d5 28       		.byte	40
 1212 00d6 38       		.byte	56
 1213 00d7 80       		.byte	-128
 1214 00d8 39       		.byte	57
 1215 00d9 14       		.byte	20
 1216 00da 3C       		.byte	60
 1217 00db 02       		.byte	2
 1218 00dc 3D       		.byte	61
 1219 00dd 80       		.byte	-128
 1220 00de 43       		.byte	67
 1221 00df 08       		.byte	8
 1222 00e0 45       		.byte	69
 1223 00e1 08       		.byte	8
 1224 00e2 48       		.byte	72
 1225 00e3 20       		.byte	32
 1226 00e4 50       		.byte	80
 1227 00e5 48       		.byte	72
 1228 00e6 53       		.byte	83
 1229 00e7 20       		.byte	32
ARM GAS  C:\Users\Admin\AppData\Local\Temp\ccyrMX0g.s 			page 37


 1230 00e8 57       		.byte	87
 1231 00e9 50       		.byte	80
 1232 00ea 68       		.byte	104
 1233 00eb 01       		.byte	1
 1234 00ec 69       		.byte	105
 1235 00ed 14       		.byte	20
 1236 00ee 6D       		.byte	109
 1237 00ef 80       		.byte	-128
 1238 00f0 6F       		.byte	111
 1239 00f1 04       		.byte	4
 1240 00f2 7A       		.byte	122
 1241 00f3 40       		.byte	64
 1242 00f4 7E       		.byte	126
 1243 00f5 20       		.byte	32
 1244 00f6 82       		.byte	-126
 1245 00f7 04       		.byte	4
 1246 00f8 86       		.byte	-122
 1247 00f9 01       		.byte	1
 1248 00fa 8C       		.byte	-116
 1249 00fb 10       		.byte	16
 1250 00fc C2       		.byte	-62
 1251 00fd 30       		.byte	48
 1252 00fe C4       		.byte	-60
 1253 00ff 20       		.byte	32
 1254 0100 CA       		.byte	-54
 1255 0101 02       		.byte	2
 1256 0102 CC       		.byte	-52
 1257 0103 06       		.byte	6
 1258 0104 CE       		.byte	-50
 1259 0105 9E       		.byte	-98
 1260 0106 D0       		.byte	-48
 1261 0107 42       		.byte	66
 1262 0108 DE       		.byte	-34
 1263 0109 41       		.byte	65
 1264 010a E4       		.byte	-28
 1265 010b 06       		.byte	6
 1266 010c 1E       		.byte	30
 1267 010d 01       		.byte	1
 1268 010e 34       		.byte	52
 1269 010f 01       		.byte	1
 1270 0110 3B       		.byte	59
 1271 0111 0C       		.byte	12
 1272 0112 40       		.byte	64
 1273 0113 60       		.byte	96
 1274 0114 41       		.byte	65
 1275 0115 05       		.byte	5
 1276 0116 49       		.byte	73
 1277 0117 FF       		.byte	-1
 1278 0118 4A       		.byte	74
 1279 0119 FF       		.byte	-1
 1280 011a 4B       		.byte	75
 1281 011b FF       		.byte	-1
 1282 011c 4D       		.byte	77
 1283 011d A0       		.byte	-96
 1284 011e 4F       		.byte	79
 1285 011f 04       		.byte	4
 1286 0120 50       		.byte	80
ARM GAS  C:\Users\Admin\AppData\Local\Temp\ccyrMX0g.s 			page 38


 1287 0121 18       		.byte	24
 1288 0122 56       		.byte	86
 1289 0123 08       		.byte	8
 1290 0124 58       		.byte	88
 1291 0125 0B       		.byte	11
 1292 0126 59       		.byte	89
 1293 0127 04       		.byte	4
 1294 0128 5A       		.byte	90
 1295 0129 08       		.byte	8
 1296 012a 5B       		.byte	91
 1297 012b 04       		.byte	4
 1298 012c 5C       		.byte	92
 1299 012d 29       		.byte	41
 1300 012e 5D       		.byte	93
 1301 012f 99       		.byte	-103
 1302 0130 5F       		.byte	95
 1303 0131 01       		.byte	1
 1304 0132 60       		.byte	96
 1305 0133 40       		.byte	64
 1306 0134 62       		.byte	98
 1307 0135 C0       		.byte	-64
 1308 0136 64       		.byte	100
 1309 0137 40       		.byte	64
 1310 0138 65       		.byte	101
 1311 0139 40       		.byte	64
 1312 013a 66       		.byte	102
 1313 013b C0       		.byte	-64
 1314 013c 68       		.byte	104
 1315 013d C0       		.byte	-64
 1316 013e 6A       		.byte	106
 1317 013f C0       		.byte	-64
 1318 0140 6C       		.byte	108
 1319 0141 C0       		.byte	-64
 1320 0142 6E       		.byte	110
 1321 0143 C0       		.byte	-64
 1322 0144 86       		.byte	-122
 1323 0145 16       		.byte	22
 1324 0146 8C       		.byte	-116
 1325 0147 02       		.byte	2
 1326 0148 8E       		.byte	-114
 1327 0149 04       		.byte	4
 1328 014a 91       		.byte	-111
 1329 014b 02       		.byte	2
 1330 014c 92       		.byte	-110
 1331 014d 03       		.byte	3
 1332 014e 99       		.byte	-103
 1333 014f 03       		.byte	3
 1334 0150 9C       		.byte	-100
 1335 0151 01       		.byte	1
 1336 0152 A2       		.byte	-94
 1337 0153 09       		.byte	9
 1338 0154 A4       		.byte	-92
 1339 0155 10       		.byte	16
 1340 0156 B0       		.byte	-80
 1341 0157 10       		.byte	16
 1342 0158 B1       		.byte	-79
 1343 0159 01       		.byte	1
ARM GAS  C:\Users\Admin\AppData\Local\Temp\ccyrMX0g.s 			page 39


 1344 015a B2       		.byte	-78
 1345 015b 04       		.byte	4
 1346 015c B4       		.byte	-76
 1347 015d 03       		.byte	3
 1348 015e B6       		.byte	-74
 1349 015f 08       		.byte	8
 1350 0160 B7       		.byte	-73
 1351 0161 02       		.byte	2
 1352 0162 BE       		.byte	-66
 1353 0163 04       		.byte	4
 1354 0164 C0       		.byte	-64
 1355 0165 20       		.byte	32
 1356 0166 C1       		.byte	-63
 1357 0167 05       		.byte	5
 1358 0168 C5       		.byte	-59
 1359 0169 D1       		.byte	-47
 1360 016a C7       		.byte	-57
 1361 016b 20       		.byte	32
 1362 016c C8       		.byte	-56
 1363 016d 23       		.byte	35
 1364 016e C9       		.byte	-55
 1365 016f FF       		.byte	-1
 1366 0170 CA       		.byte	-54
 1367 0171 FF       		.byte	-1
 1368 0172 CB       		.byte	-53
 1369 0173 FF       		.byte	-1
 1370 0174 CD       		.byte	-51
 1371 0175 AF       		.byte	-81
 1372 0176 CE       		.byte	-50
 1373 0177 0F       		.byte	15
 1374 0178 CF       		.byte	-49
 1375 0179 04       		.byte	4
 1376 017a D0       		.byte	-48
 1377 017b 18       		.byte	24
 1378 017c D2       		.byte	-46
 1379 017d 80       		.byte	-128
 1380 017e D4       		.byte	-44
 1381 017f 05       		.byte	5
 1382 0180 D6       		.byte	-42
 1383 0181 04       		.byte	4
 1384 0182 D8       		.byte	-40
 1385 0183 0B       		.byte	11
 1386 0184 D9       		.byte	-39
 1387 0185 0B       		.byte	11
 1388 0186 DA       		.byte	-38
 1389 0187 0B       		.byte	11
 1390 0188 DB       		.byte	-37
 1391 0189 0B       		.byte	11
 1392 018a DC       		.byte	-36
 1393 018b 99       		.byte	-103
 1394 018c DD       		.byte	-35
 1395 018d 99       		.byte	-103
 1396 018e DF       		.byte	-33
 1397 018f 01       		.byte	1
 1398 0190 E0       		.byte	-32
 1399 0191 40       		.byte	64
 1400 0192 E2       		.byte	-30
ARM GAS  C:\Users\Admin\AppData\Local\Temp\ccyrMX0g.s 			page 40


 1401 0193 C0       		.byte	-64
 1402 0194 E4       		.byte	-28
 1403 0195 40       		.byte	64
 1404 0196 E5       		.byte	-27
 1405 0197 40       		.byte	64
 1406 0198 E6       		.byte	-26
 1407 0199 C0       		.byte	-64
 1408 019a E8       		.byte	-24
 1409 019b C0       		.byte	-64
 1410 019c EA       		.byte	-22
 1411 019d C0       		.byte	-64
 1412 019e EC       		.byte	-20
 1413 019f C0       		.byte	-64
 1414 01a0 EE       		.byte	-18
 1415 01a1 C0       		.byte	-64
 1416 01a2 00       		.byte	0
 1417 01a3 04       		.byte	4
 1418 01a4 02       		.byte	2
 1419 01a5 02       		.byte	2
 1420 01a6 0A       		.byte	10
 1421 01a7 01       		.byte	1
 1422 01a8 0B       		.byte	11
 1423 01a9 40       		.byte	64
 1424 01aa 0F       		.byte	15
 1425 01ab 02       		.byte	2
 1426 01ac 10       		.byte	16
 1427 01ad 20       		.byte	32
 1428 01ae 11       		.byte	17
 1429 01af 02       		.byte	2
 1430 01b0 18       		.byte	24
 1431 01b1 04       		.byte	4
 1432 01b2 19       		.byte	25
 1433 01b3 04       		.byte	4
 1434 01b4 1A       		.byte	26
 1435 01b5 01       		.byte	1
 1436 01b6 1B       		.byte	27
 1437 01b7 11       		.byte	17
 1438 01b8 1F       		.byte	31
 1439 01b9 10       		.byte	16
 1440 01ba 21       		.byte	33
 1441 01bb 02       		.byte	2
 1442 01bc 22       		.byte	34
 1443 01bd 40       		.byte	64
 1444 01be 27       		.byte	39
 1445 01bf 10       		.byte	16
 1446 01c0 30       		.byte	48
 1447 01c1 20       		.byte	32
 1448 01c2 31       		.byte	49
 1449 01c3 02       		.byte	2
 1450 01c4 40       		.byte	64
 1451 01c5 04       		.byte	4
 1452 01c6 48       		.byte	72
 1453 01c7 20       		.byte	32
 1454 01c8 49       		.byte	73
 1455 01c9 02       		.byte	2
 1456 01ca 4A       		.byte	74
 1457 01cb 02       		.byte	2
ARM GAS  C:\Users\Admin\AppData\Local\Temp\ccyrMX0g.s 			page 41


 1458 01cc 4E       		.byte	78
 1459 01cd 02       		.byte	2
 1460 01ce 4F       		.byte	79
 1461 01cf 20       		.byte	32
 1462 01d0 52       		.byte	82
 1463 01d1 02       		.byte	2
 1464 01d2 59       		.byte	89
 1465 01d3 06       		.byte	6
 1466 01d4 5A       		.byte	90
 1467 01d5 80       		.byte	-128
 1468 01d6 5F       		.byte	95
 1469 01d7 80       		.byte	-128
 1470 01d8 63       		.byte	99
 1471 01d9 80       		.byte	-128
 1472 01da 64       		.byte	100
 1473 01db 01       		.byte	1
 1474 01dc 67       		.byte	103
 1475 01dd 02       		.byte	2
 1476 01de 73       		.byte	115
 1477 01df 40       		.byte	64
 1478 01e0 78       		.byte	120
 1479 01e1 01       		.byte	1
 1480 01e2 7D       		.byte	125
 1481 01e3 02       		.byte	2
 1482 01e4 7F       		.byte	127
 1483 01e5 01       		.byte	1
 1484 01e6 81       		.byte	-127
 1485 01e7 01       		.byte	1
 1486 01e8 83       		.byte	-125
 1487 01e9 40       		.byte	64
 1488 01ea 87       		.byte	-121
 1489 01eb 10       		.byte	16
 1490 01ec 89       		.byte	-119
 1491 01ed 20       		.byte	32
 1492 01ee 8B       		.byte	-117
 1493 01ef 01       		.byte	1
 1494 01f0 8F       		.byte	-113
 1495 01f1 90       		.byte	-112
 1496 01f2 A1       		.byte	-95
 1497 01f3 20       		.byte	32
 1498 01f4 C0       		.byte	-64
 1499 01f5 05       		.byte	5
 1500 01f6 C2       		.byte	-62
 1501 01f7 89       		.byte	-119
 1502 01f8 C4       		.byte	-60
 1503 01f9 0C       		.byte	12
 1504 01fa CC       		.byte	-52
 1505 01fb 05       		.byte	5
 1506 01fc D0       		.byte	-48
 1507 01fd 04       		.byte	4
 1508 01fe D2       		.byte	-46
 1509 01ff 38       		.byte	56
 1510 0200 D6       		.byte	-42
 1511 0201 1B       		.byte	27
 1512 0202 D8       		.byte	-40
 1513 0203 11       		.byte	17
 1514 0204 DE       		.byte	-34
ARM GAS  C:\Users\Admin\AppData\Local\Temp\ccyrMX0g.s 			page 42


 1515 0205 91       		.byte	-111
 1516 0206 E2       		.byte	-30
 1517 0207 80       		.byte	-128
 1518 0208 E4       		.byte	-28
 1519 0209 03       		.byte	3
 1520 020a E6       		.byte	-26
 1521 020b 40       		.byte	64
 1522 020c 07       		.byte	7
 1523 020d 40       		.byte	64
 1524 020e 59       		.byte	89
 1525 020f 80       		.byte	-128
 1526 0210 5F       		.byte	95
 1527 0211 40       		.byte	64
 1528 0212 66       		.byte	102
 1529 0213 02       		.byte	2
 1530 0214 6F       		.byte	111
 1531 0215 10       		.byte	16
 1532 0216 83       		.byte	-125
 1533 0217 50       		.byte	80
 1534 0218 87       		.byte	-121
 1535 0219 40       		.byte	64
 1536 021a 8A       		.byte	-118
 1537 021b 02       		.byte	2
 1538 021c 8D       		.byte	-115
 1539 021d 80       		.byte	-128
 1540 021e C0       		.byte	-64
 1541 021f 20       		.byte	32
 1542 0220 D4       		.byte	-44
 1543 0221 80       		.byte	-128
 1544 0222 D6       		.byte	-42
 1545 0223 20       		.byte	32
 1546 0224 D8       		.byte	-40
 1547 0225 80       		.byte	-128
 1548 0226 DA       		.byte	-38
 1549 0227 80       		.byte	-128
 1550 0228 E2       		.byte	-30
 1551 0229 20       		.byte	32
 1552 022a E4       		.byte	-28
 1553 022b 80       		.byte	-128
 1554 022c E6       		.byte	-26
 1555 022d 40       		.byte	64
 1556 022e 27       		.byte	39
 1557 022f 20       		.byte	32
 1558 0230 3B       		.byte	59
 1559 0231 01       		.byte	1
 1560 0232 44       		.byte	68
 1561 0233 02       		.byte	2
 1562 0234 47       		.byte	71
 1563 0235 02       		.byte	2
 1564 0236 66       		.byte	102
 1565 0237 08       		.byte	8
 1566 0238 6B       		.byte	107
 1567 0239 10       		.byte	16
 1568 023a 6F       		.byte	111
 1569 023b 08       		.byte	8
 1570 023c 81       		.byte	-127
 1571 023d 08       		.byte	8
ARM GAS  C:\Users\Admin\AppData\Local\Temp\ccyrMX0g.s 			page 43


 1572 023e 86       		.byte	-122
 1573 023f 08       		.byte	8
 1574 0240 8F       		.byte	-113
 1575 0241 10       		.byte	16
 1576 0242 C8       		.byte	-56
 1577 0243 01       		.byte	1
 1578 0244 CE       		.byte	-50
 1579 0245 02       		.byte	2
 1580 0246 D0       		.byte	-48
 1581 0247 05       		.byte	5
 1582 0248 D8       		.byte	-40
 1583 0249 01       		.byte	1
 1584 024a DA       		.byte	-38
 1585 024b 03       		.byte	3
 1586 024c E4       		.byte	-28
 1587 024d 02       		.byte	2
 1588 024e 13       		.byte	19
 1589 024f 01       		.byte	1
 1590 0250 17       		.byte	23
 1591 0251 02       		.byte	2
 1592 0252 5A       		.byte	90
 1593 0253 01       		.byte	1
 1594 0254 5D       		.byte	93
 1595 0255 08       		.byte	8
 1596 0256 83       		.byte	-125
 1597 0257 08       		.byte	8
 1598 0258 84       		.byte	-124
 1599 0259 02       		.byte	2
 1600 025a 8A       		.byte	-118
 1601 025b 01       		.byte	1
 1602 025c 8F       		.byte	-113
 1603 025d 20       		.byte	32
 1604 025e 97       		.byte	-105
 1605 025f 01       		.byte	1
 1606 0260 99       		.byte	-103
 1607 0261 08       		.byte	8
 1608 0262 9B       		.byte	-101
 1609 0263 20       		.byte	32
 1610 0264 9C       		.byte	-100
 1611 0265 02       		.byte	2
 1612 0266 9F       		.byte	-97
 1613 0267 02       		.byte	2
 1614 0268 A7       		.byte	-89
 1615 0269 08       		.byte	8
 1616 026a C4       		.byte	-60
 1617 026b 0C       		.byte	12
 1618 026c D6       		.byte	-42
 1619 026d 03       		.byte	3
 1620 026e E4       		.byte	-28
 1621 026f 01       		.byte	1
 1622 0270 E6       		.byte	-26
 1623 0271 08       		.byte	8
 1624 0272 10       		.byte	16
 1625 0273 0E       		.byte	14
 1626 0274 11       		.byte	17
 1627 0275 01       		.byte	1
 1628 0276 0000     		.text
ARM GAS  C:\Users\Admin\AppData\Local\Temp\ccyrMX0g.s 			page 44


 1629              	.Letext0:
 1630              		.file 2 "c:\\program files (x86)\\cypress\\psoc creator\\3.1\\psoc creator\\import\\gnu_cs\\arm\\4
 1631              		.file 3 ".\\Generated_Source\\PSoC4/cytypes.h"