ARM GAS  C:\Users\Admin\AppData\Local\Temp\ccymS7Kd.s 			page 1


   1              		.cpu cortex-m0
   2              		.fpu softvfp
   3              		.eabi_attribute 20, 1
   4              		.eabi_attribute 21, 1
   5              		.eabi_attribute 23, 3
   6              		.eabi_attribute 24, 1
   7              		.eabi_attribute 25, 1
   8              		.eabi_attribute 26, 1
   9              		.eabi_attribute 30, 6
  10              		.eabi_attribute 34, 0
  11              		.eabi_attribute 18, 4
  12              		.code	16
  13              		.file	"main.c"
  14              		.text
  15              	.Ltext0:
  16              		.cfi_sections	.debug_frame
  17              		.comm	RGBledData,4,4
  18              		.comm	Calculate_Frequency,1,1
  19              		.section	.rodata
  20              		.align	2
  21              	.LC0:
  22 0000 57656C63 		.ascii	"Welcome to Frequency Measurement Using PSoC 4 BLE\012"
  22      6F6D6520 
  22      746F2046 
  22      72657175 
  22      656E6379 
  23 0032 00       		.ascii	"\000"
  24 0033 00       		.align	2
  25              	.LC5:
  26 0034 496E7075 		.ascii	"Input Signal Counter Value: \000"
  26      74205369 
  26      676E616C 
  26      20436F75 
  26      6E746572 
  27 0051 000000   		.align	2
  28              	.LC8:
  29 0054 20202020 		.ascii	"      \000"
  29      202000
  30 005b 00       		.align	2
  31              	.LC11:
  32 005c 52656665 		.ascii	"Reference Clock Counter Value: \000"
  32      72656E63 
  32      6520436C 
  32      6F636B20 
  32      436F756E 
  33              		.align	2
  34              	.LC15:
  35 007c 496E7075 		.ascii	"Input Frequency: \000"
  35      74204672 
  35      65717565 
  35      6E63793A 
  35      2000
  36 008e 0000     		.align	2
  37              	.LC18:
  38 0090 52656420 		.ascii	"Red Value: \000"
  38      56616C75 
  38      653A2000 
ARM GAS  C:\Users\Admin\AppData\Local\Temp\ccymS7Kd.s 			page 2


  39              		.align	2
  40              	.LC21:
  41 009c 426C7565 		.ascii	"Blue Value: \000"
  41      2056616C 
  41      75653A20 
  41      00
  42 00a9 000000   		.align	2
  43              	.LC23:
  44 00ac 47524545 		.ascii	"GREEN Value: \000"
  44      4E205661 
  44      6C75653A 
  44      2000
  45 00ba 0000     		.align	2
  46              	.LC25:
  47 00bc 496E7465 		.ascii	"Intensity Value: \000"
  47      6E736974 
  47      79205661 
  47      6C75653A 
  47      2000
  48 00ce 0000     		.section	.text.main,"ax",%progbits
  49              		.align	2
  50              		.global	main
  51              		.code	16
  52              		.thumb_func
  53              		.type	main, %function
  54              	main:
  55              	.LFB35:
  56              		.file 1 ".\\main.c"
   1:.\main.c      **** /***************************************************************************//**
   2:.\main.c      **** * @file    main.c
   3:.\main.c      **** * @version 1.0
   4:.\main.c      **** * @authors DCHE
   5:.\main.c      **** *
   6:.\main.c      **** * @par Description
   7:.\main.c      **** *   This file contains the main source code for Frequency Measurement using
   8:.\main.c      **** *	PSoC 4 BLE.
   9:.\main.c      **** *
  10:.\main.c      **** * @par Notes
  11:.\main.c      **** *	None
  12:.\main.c      **** *
  13:.\main.c      **** * @par Hardware Dependency
  14:.\main.c      **** *    1. CY8CKIT-042 BLE Pioneer Kit
  15:.\main.c      **** *
  16:.\main.c      **** * @par References
  17:.\main.c      **** *    1. 001-32359: AN2283 "PSoC 1 Measuring Frequency"
  18:.\main.c      **** *
  19:.\main.c      **** * @par Code Tested With
  20:.\main.c      **** *    1. PSoC Creator  3.1 SP2 (3.1.0.2177)
  21:.\main.c      **** *    2. GCC 4.8.4
  22:.\main.c      **** *
  23:.\main.c      **** **//****************************************************************************
  24:.\main.c      **** * Copyright (2015), Cypress Semiconductor Corporation.
  25:.\main.c      **** ********************************************************************************
  26:.\main.c      **** * All rights reserved. 
  27:.\main.c      **** * This software, including source code, documentation and related 
  28:.\main.c      **** * materials (“Software”), is owned by Cypress Semiconductor 
  29:.\main.c      **** * Corporation (“Cypress”) and is protected by and subject to worldwide 
ARM GAS  C:\Users\Admin\AppData\Local\Temp\ccymS7Kd.s 			page 3


  30:.\main.c      **** * patent protection (United States and foreign), United States copyright 
  31:.\main.c      **** * laws and international treaty provisions. Therefore, you may use this 
  32:.\main.c      **** * Software only as provided in the license agreement accompanying the 
  33:.\main.c      **** * software package from which you obtained this Software (“EULA”). 
  34:.\main.c      **** *
  35:.\main.c      **** * If no EULA applies, Cypress hereby grants you a personal, non-exclusive, 
  36:.\main.c      **** * non-transferable license to copy, modify and compile the Software source code
  37:.\main.c      **** * solely for your use in connection with Cypress's integrated circuit products.
  38:.\main.c      **** * Any reproduction, modification, translation, compilation, or representation
  39:.\main.c      **** * of this Software except as specified above is prohibited without the express
  40:.\main.c      **** * written permission of Cypress.
  41:.\main.c      **** 
  42:.\main.c      **** * Disclaimer: THIS SOFTWARE IS PROVIDED AS-IS, WITH NO WARRANTY OF ANY KIND,
  43:.\main.c      **** * EXPRESS OR IMPLIED, INCLUDING, BUT NOT LIMITED TO, NONINFRINGEMENT, IMPLIED
  44:.\main.c      **** * WARRANTIES OF MERCHANTABILITY AND FITNESS FOR A PARTICULAR PURPOSE.
  45:.\main.c      **** * Cypress reserves the right to make changes to the Software without notice. 
  46:.\main.c      **** * Cypress does not assume any liability arising out of the application or use 
  47:.\main.c      **** * of the Software or any product or circuit described in the Software. Cypress
  48:.\main.c      **** * does not authorize its products for use in any products where a malfunction
  49:.\main.c      **** * or failure of the Cypress product may reasonably be expected to result in 
  50:.\main.c      **** * significant property damage, injury or death (“High Risk Product”). By 
  51:.\main.c      **** * including Cypress’s product in a High Risk Product, the manufacturer of such  
  52:.\main.c      **** * system or application assumes all risk of such use and in doing so agrees to  
  53:.\main.c      **** * indemnify Cypress against all liability. 
  54:.\main.c      **** *******************************************************************************/
  55:.\main.c      **** 
  56:.\main.c      **** /*******************************************************************************
  57:.\main.c      **** *   Included Headers and Macros
  58:.\main.c      **** *******************************************************************************/
  59:.\main.c      **** #include "main.h"
  60:.\main.c      **** //#include <BLEApplications.c>
  61:.\main.c      **** /*******************************************************************************
  62:.\main.c      **** *   Variable and Function Declarations
  63:.\main.c      **** *******************************************************************************/
  64:.\main.c      **** static void InitializeSystem(void);
  65:.\main.c      **** /*'deviceConnected' flag is used by application to know whether a Central device  
  66:.\main.c      **** * has been connected. This is updated in BLE event callback */
  67:.\main.c      **** extern uint8 deviceConnected;
  68:.\main.c      **** 
  69:.\main.c      **** /*'startNotification' flag is set when the central device writes to CCC (Client  
  70:.\main.c      **** * Characteristic Configuration) of the Custom characteristic to 
  71:.\main.c      **** * enable notifications */
  72:.\main.c      **** extern uint8 startNotification;	
  73:.\main.c      **** 
  74:.\main.c      **** /* 'restartAdvertisement' flag is used to restart advertisement */
  75:.\main.c      **** extern uint8 restartAdvertisement;
  76:.\main.c      **** 
  77:.\main.c      **** /* Array to store the computed frequency in ASCII format */
  78:.\main.c      **** extern uint8 Input_Frequency[FREQ_DATA_LEN];
  79:.\main.c      **** 
  80:.\main.c      **** /* Array to store the input counter count in ASCII format */
  81:.\main.c      **** extern uint8 InputCounter_ASCII[FREQ_DATA_LEN];
  82:.\main.c      **** 
  83:.\main.c      **** /* Array to store the ref clock counter count in ASCII format */
  84:.\main.c      **** extern uint8 RefCounter_ASCII[FREQ_DATA_LEN];
  85:.\main.c      **** 
  86:.\main.c      **** /* Variable to indicate CPU to compute frequency of the input signal */
ARM GAS  C:\Users\Admin\AppData\Local\Temp\ccymS7Kd.s 			page 4


  87:.\main.c      **** uint8 Calculate_Frequency;
  88:.\main.c      **** 
  89:.\main.c      **** /* Variable that holds the input signal count and reference clock count */
  90:.\main.c      **** extern uint32 Input_Signal_Count, Ref_Clock_Count;
  91:.\main.c      **** 
  92:.\main.c      **** /* Variable to indicate that a valid capture is detected for input signal 
  93:.\main.c      ****    counter and reference clock counter */
  94:.\main.c      **** extern uint8 Input_Sig_Ctr_Capture, Ref_Clk_Ctr_Capture;
  95:.\main.c      **** 
  96:.\main.c      **** /*******************************************************************************
  97:.\main.c      **** * Function Name: main
  98:.\main.c      **** ********************************************************************************
  99:.\main.c      **** *
 100:.\main.c      **** * Summary:
 101:.\main.c      **** *   This is the main entry point for this application. This function initializes all the 
 102:.\main.c      **** *	components used in the project. It computes the frequency whenever a capture event is 
 103:.\main.c      **** *
 104:.\main.c      **** * Parameters:  
 105:.\main.c      **** *   None
 106:.\main.c      **** *
 107:.\main.c      **** * Return:
 108:.\main.c      **** *   None
 109:.\main.c      **** *
 110:.\main.c      **** *******************************************************************************/
 111:.\main.c      **** int main()
 112:.\main.c      **** {
  57              		.loc 1 112 0
  58              		.cfi_startproc
  59 0000 80B5     		push	{r7, lr}
  60              		.cfi_def_cfa_offset 8
  61              		.cfi_offset 7, -8
  62              		.cfi_offset 14, -4
  63 0002 82B0     		sub	sp, sp, #8
  64              		.cfi_def_cfa_offset 16
  65 0004 00AF     		add	r7, sp, #0
  66              		.cfi_def_cfa_register 7
 113:.\main.c      ****     InitializeSystem();
  67              		.loc 1 113 0
  68 0006 FFF7FEFF 		bl	InitializeSystem
 114:.\main.c      **** 	#if(UART_DEBUG_ENABLE)
 115:.\main.c      **** 		/* Variable to store the loop number */
 116:.\main.c      **** 		uint8 loopNo = 0;
  69              		.loc 1 116 0
  70 000a FB1D     		add	r3, r7, #7
  71 000c 0022     		mov	r2, #0
  72 000e 1A70     		strb	r2, [r3]
 117:.\main.c      **** 	#endif
 118:.\main.c      **** 	/* Enable global interrupt mask */
 119:.\main.c      **** 	CyGlobalIntEnable;	
  73              		.loc 1 119 0
  74              	@ 119 ".\main.c" 1
  75 0010 62B6     		CPSIE   i
  76              	@ 0 "" 2
 120:.\main.c      **** 	
 121:.\main.c      **** 	/* Disable ILO as it is not used */
 122:.\main.c      **** 	CySysClkIloStop();
  77              		.loc 1 122 0
ARM GAS  C:\Users\Admin\AppData\Local\Temp\ccymS7Kd.s 			page 5


  78              		.code	16
  79 0012 FFF7FEFF 		bl	CySysClkIloStop
 123:.\main.c      **** 	
 124:.\main.c      **** 	/* Initialize components related to BLE communication */
 125:.\main.c      **** 	InitializeBLESystem();
  80              		.loc 1 125 0
  81 0016 FFF7FEFF 		bl	InitializeBLESystem
 126:.\main.c      **** 	
 127:.\main.c      **** 	/* Initialize components related to frequency counting */
 128:.\main.c      **** 	Initialize_Freq_Meas_System();
  82              		.loc 1 128 0
  83 001a FFF7FEFF 		bl	Initialize_Freq_Meas_System
 129:.\main.c      **** 	
 130:.\main.c      **** 	/* Start UART component if UART debug is enabled */
 131:.\main.c      **** 	#if(UART_DEBUG_ENABLE)
 132:.\main.c      **** 		/* Start UART component and send welcome string to hyper terminal on PC */
 133:.\main.c      **** 		UART_Start();
  84              		.loc 1 133 0
  85 001e FFF7FEFF 		bl	UART_Start
 134:.\main.c      **** 		UART_UartPutString("Welcome to Frequency Measurement Using PSoC 4 BLE\n");
  86              		.loc 1 134 0
  87 0022 8E4B     		ldr	r3, .L18
  88 0024 181C     		mov	r0, r3
  89 0026 FFF7FEFF 		bl	UART_UartPutString
 135:.\main.c      **** 		UART_PutCRLF();
  90              		.loc 1 135 0
  91 002a FFF7FEFF 		bl	UART_PutCRLF
 136:.\main.c      **** 	#endif
 137:.\main.c      **** 	
 138:.\main.c      ****     while(1)
 139:.\main.c      ****     {
 140:.\main.c      ****         while (RGBledData[RED_INDEX]==0xff){
  92              		.loc 1 140 0
  93 002e F9E0     		b	.L2
  94              	.L14:
 141:.\main.c      **** 		/* Compute frequency once in every PWM interval(2s) */
 142:.\main.c      **** 		if(Calculate_Frequency == TRUE)
  95              		.loc 1 142 0
  96 0030 8B4B     		ldr	r3, .L18+4
  97 0032 1B78     		ldrb	r3, [r3]
  98 0034 012B     		cmp	r3, #1
  99 0036 00D0     		beq	.LCB32
 100 0038 F1E0     		b	.L3	@long jump
 101              	.LCB32:
 143:.\main.c      **** 		{
 144:.\main.c      **** 			/* Check if valid capture event is detected */
 145:.\main.c      **** 			    if((Input_Sig_Ctr_Capture == 1) && (Ref_Clk_Ctr_Capture == 1))
 102              		.loc 1 145 0
 103 003a 8A4B     		ldr	r3, .L18+8
 104 003c 1B78     		ldrb	r3, [r3]
 105 003e 012B     		cmp	r3, #1
 106 0040 00D0     		beq	.LCB36
 107 0042 B7E0     		b	.L4	@long jump
 108              	.LCB36:
 109              		.loc 1 145 0 is_stmt 0 discriminator 1
 110 0044 884B     		ldr	r3, .L18+12
 111 0046 1B78     		ldrb	r3, [r3]
ARM GAS  C:\Users\Admin\AppData\Local\Temp\ccymS7Kd.s 			page 6


 112 0048 012B     		cmp	r3, #1
 113 004a 00D0     		beq	.LCB40
 114 004c B2E0     		b	.L4	@long jump
 115              	.LCB40:
 146:.\main.c      **** 			    {
 147:.\main.c      **** 				/* Compute frequency using the latched count value, computed frequency 
 148:.\main.c      **** 				will be stored in ASCII format in a global array */
 149:.\main.c      **** 				Compute_Frequency();
 116              		.loc 1 149 0 is_stmt 1
 117 004e FFF7FEFF 		bl	Compute_Frequency
 150:.\main.c      **** 				
 151:.\main.c      **** 				#if(UART_DEBUG_ENABLE)
 152:.\main.c      **** 					/* Print input signal counter value in hexadecimal */
 153:.\main.c      **** 					UART_UartPutString("Input Signal Counter Value: ");
 118              		.loc 1 153 0
 119 0052 864B     		ldr	r3, .L18+16
 120 0054 181C     		mov	r0, r3
 121 0056 FFF7FEFF 		bl	UART_UartPutString
 154:.\main.c      **** 					UART_SendDebugData(Input_Signal_Count);
 122              		.loc 1 154 0
 123 005a 854B     		ldr	r3, .L18+20
 124 005c 1B68     		ldr	r3, [r3]
 125 005e 181C     		mov	r0, r3
 126 0060 FFF7FEFF 		bl	UART_SendDebugData
 155:.\main.c      **** 					UART_UartPutString("      ");
 127              		.loc 1 155 0
 128 0064 834B     		ldr	r3, .L18+24
 129 0066 181C     		mov	r0, r3
 130 0068 FFF7FEFF 		bl	UART_UartPutString
 156:.\main.c      **** 					
 157:.\main.c      **** 					/* Print input signal counter value in ASCII format */	
 158:.\main.c      **** 					/* Reset the array before storing the ASCII character */
 159:.\main.c      **** 					Reset_Array(InputCounter_ASCII, DATA_END);
 131              		.loc 1 159 0
 132 006c 824B     		ldr	r3, .L18+28
 133 006e 181C     		mov	r0, r3
 134 0070 0A21     		mov	r1, #10
 135 0072 FFF7FEFF 		bl	Reset_Array
 160:.\main.c      **** 					
 161:.\main.c      **** 					Convert_HextoDec(Input_Signal_Count, InputCounter_ASCII);
 136              		.loc 1 161 0
 137 0076 7E4B     		ldr	r3, .L18+20
 138 0078 1A68     		ldr	r2, [r3]
 139 007a 7F4B     		ldr	r3, .L18+28
 140 007c 101C     		mov	r0, r2
 141 007e 191C     		mov	r1, r3
 142 0080 FFF7FEFF 		bl	Convert_HextoDec
 162:.\main.c      **** 					for(loopNo = 0; loopNo < DATA_END; loopNo++)
 143              		.loc 1 162 0
 144 0084 FB1D     		add	r3, r7, #7
 145 0086 0022     		mov	r2, #0
 146 0088 1A70     		strb	r2, [r3]
 147 008a 0DE0     		b	.L5
 148              	.L6:
 163:.\main.c      **** 					{
 164:.\main.c      **** 						UART_UartPutChar(InputCounter_ASCII[DATA_END - loopNo -1]);
 149              		.loc 1 164 0 discriminator 2
ARM GAS  C:\Users\Admin\AppData\Local\Temp\ccymS7Kd.s 			page 7


 150 008c FB1D     		add	r3, r7, #7
 151 008e 1B78     		ldrb	r3, [r3]
 152 0090 0922     		mov	r2, #9
 153 0092 D31A     		sub	r3, r2, r3
 154 0094 784A     		ldr	r2, .L18+28
 155 0096 D35C     		ldrb	r3, [r2, r3]
 156 0098 181C     		mov	r0, r3
 157 009a FFF7FEFF 		bl	UART_SpiUartWriteTxData
 162:.\main.c      **** 					for(loopNo = 0; loopNo < DATA_END; loopNo++)
 158              		.loc 1 162 0 discriminator 2
 159 009e FB1D     		add	r3, r7, #7
 160 00a0 1A78     		ldrb	r2, [r3]
 161 00a2 FB1D     		add	r3, r7, #7
 162 00a4 0132     		add	r2, r2, #1
 163 00a6 1A70     		strb	r2, [r3]
 164              	.L5:
 162:.\main.c      **** 					for(loopNo = 0; loopNo < DATA_END; loopNo++)
 165              		.loc 1 162 0 is_stmt 0 discriminator 1
 166 00a8 FB1D     		add	r3, r7, #7
 167 00aa 1B78     		ldrb	r3, [r3]
 168 00ac 092B     		cmp	r3, #9
 169 00ae EDD9     		bls	.L6
 165:.\main.c      **** 					}
 166:.\main.c      **** 					UART_PutCRLF();	
 170              		.loc 1 166 0 is_stmt 1
 171 00b0 FFF7FEFF 		bl	UART_PutCRLF
 167:.\main.c      **** 
 168:.\main.c      **** 					/* Print reference clock counter value */
 169:.\main.c      **** 					UART_UartPutString("Reference Clock Counter Value: ");
 172              		.loc 1 169 0
 173 00b4 714B     		ldr	r3, .L18+32
 174 00b6 181C     		mov	r0, r3
 175 00b8 FFF7FEFF 		bl	UART_UartPutString
 170:.\main.c      **** 					UART_SendDebugData(Ref_Clock_Count);
 176              		.loc 1 170 0
 177 00bc 704B     		ldr	r3, .L18+36
 178 00be 1B68     		ldr	r3, [r3]
 179 00c0 181C     		mov	r0, r3
 180 00c2 FFF7FEFF 		bl	UART_SendDebugData
 171:.\main.c      **** 					UART_UartPutString("      ");
 181              		.loc 1 171 0
 182 00c6 6B4B     		ldr	r3, .L18+24
 183 00c8 181C     		mov	r0, r3
 184 00ca FFF7FEFF 		bl	UART_UartPutString
 172:.\main.c      **** 					
 173:.\main.c      **** 					/* Print input signal counter value in ASCII format */	
 174:.\main.c      **** 					/* Reset the array before storing the ASCII character */				
 175:.\main.c      **** 					Reset_Array(RefCounter_ASCII, DATA_END);
 185              		.loc 1 175 0
 186 00ce 6D4B     		ldr	r3, .L18+40
 187 00d0 181C     		mov	r0, r3
 188 00d2 0A21     		mov	r1, #10
 189 00d4 FFF7FEFF 		bl	Reset_Array
 176:.\main.c      **** 					Convert_HextoDec(Ref_Clock_Count, RefCounter_ASCII);
 190              		.loc 1 176 0
 191 00d8 694B     		ldr	r3, .L18+36
 192 00da 1A68     		ldr	r2, [r3]
ARM GAS  C:\Users\Admin\AppData\Local\Temp\ccymS7Kd.s 			page 8


 193 00dc 694B     		ldr	r3, .L18+40
 194 00de 101C     		mov	r0, r2
 195 00e0 191C     		mov	r1, r3
 196 00e2 FFF7FEFF 		bl	Convert_HextoDec
 177:.\main.c      **** 					for(loopNo = 0; loopNo < DATA_END; loopNo++)
 197              		.loc 1 177 0
 198 00e6 FB1D     		add	r3, r7, #7
 199 00e8 0022     		mov	r2, #0
 200 00ea 1A70     		strb	r2, [r3]
 201 00ec 0DE0     		b	.L7
 202              	.L8:
 178:.\main.c      **** 					{
 179:.\main.c      **** 						UART_UartPutChar(RefCounter_ASCII[DATA_END - loopNo -1]);
 203              		.loc 1 179 0 discriminator 2
 204 00ee FB1D     		add	r3, r7, #7
 205 00f0 1B78     		ldrb	r3, [r3]
 206 00f2 0922     		mov	r2, #9
 207 00f4 D31A     		sub	r3, r2, r3
 208 00f6 634A     		ldr	r2, .L18+40
 209 00f8 D35C     		ldrb	r3, [r2, r3]
 210 00fa 181C     		mov	r0, r3
 211 00fc FFF7FEFF 		bl	UART_SpiUartWriteTxData
 177:.\main.c      **** 					for(loopNo = 0; loopNo < DATA_END; loopNo++)
 212              		.loc 1 177 0 discriminator 2
 213 0100 FB1D     		add	r3, r7, #7
 214 0102 1A78     		ldrb	r2, [r3]
 215 0104 FB1D     		add	r3, r7, #7
 216 0106 0132     		add	r2, r2, #1
 217 0108 1A70     		strb	r2, [r3]
 218              	.L7:
 177:.\main.c      **** 					for(loopNo = 0; loopNo < DATA_END; loopNo++)
 219              		.loc 1 177 0 is_stmt 0 discriminator 1
 220 010a FB1D     		add	r3, r7, #7
 221 010c 1B78     		ldrb	r3, [r3]
 222 010e 092B     		cmp	r3, #9
 223 0110 EDD9     		bls	.L8
 180:.\main.c      **** 					}
 181:.\main.c      **** 					UART_PutCRLF();
 224              		.loc 1 181 0 is_stmt 1
 225 0112 FFF7FEFF 		bl	UART_PutCRLF
 182:.\main.c      **** 					
 183:.\main.c      **** 					/* Print Input Signal Frequency in decimal format */
 184:.\main.c      **** 					UART_UartPutString("Input Frequency: ");
 226              		.loc 1 184 0
 227 0116 5C4B     		ldr	r3, .L18+44
 228 0118 181C     		mov	r0, r3
 229 011a FFF7FEFF 		bl	UART_UartPutString
 185:.\main.c      **** 					for(loopNo = 0; loopNo < DATA_END; loopNo++)
 230              		.loc 1 185 0
 231 011e FB1D     		add	r3, r7, #7
 232 0120 0022     		mov	r2, #0
 233 0122 1A70     		strb	r2, [r3]
 234 0124 0DE0     		b	.L9
 235              	.L10:
 186:.\main.c      **** 					{
 187:.\main.c      **** 						UART_UartPutChar(Input_Frequency[DATA_END - loopNo -1]);
 236              		.loc 1 187 0 discriminator 2
ARM GAS  C:\Users\Admin\AppData\Local\Temp\ccymS7Kd.s 			page 9


 237 0126 FB1D     		add	r3, r7, #7
 238 0128 1B78     		ldrb	r3, [r3]
 239 012a 0922     		mov	r2, #9
 240 012c D31A     		sub	r3, r2, r3
 241 012e 574A     		ldr	r2, .L18+48
 242 0130 D35C     		ldrb	r3, [r2, r3]
 243 0132 181C     		mov	r0, r3
 244 0134 FFF7FEFF 		bl	UART_SpiUartWriteTxData
 185:.\main.c      **** 					for(loopNo = 0; loopNo < DATA_END; loopNo++)
 245              		.loc 1 185 0 discriminator 2
 246 0138 FB1D     		add	r3, r7, #7
 247 013a 1A78     		ldrb	r2, [r3]
 248 013c FB1D     		add	r3, r7, #7
 249 013e 0132     		add	r2, r2, #1
 250 0140 1A70     		strb	r2, [r3]
 251              	.L9:
 185:.\main.c      **** 					for(loopNo = 0; loopNo < DATA_END; loopNo++)
 252              		.loc 1 185 0 is_stmt 0 discriminator 1
 253 0142 FB1D     		add	r3, r7, #7
 254 0144 1B78     		ldrb	r3, [r3]
 255 0146 092B     		cmp	r3, #9
 256 0148 EDD9     		bls	.L10
 188:.\main.c      **** 					}
 189:.\main.c      **** 					UART_PutCRLF();	
 257              		.loc 1 189 0 is_stmt 1
 258 014a FFF7FEFF 		bl	UART_PutCRLF
 190:.\main.c      ****                     
 191:.\main.c      ****                     /* Print LED value*/
 192:.\main.c      ****                     
 193:.\main.c      ****                     UART_UartPutString("Red Value: ");
 259              		.loc 1 193 0
 260 014e 504B     		ldr	r3, .L18+52
 261 0150 181C     		mov	r0, r3
 262 0152 FFF7FEFF 		bl	UART_UartPutString
 194:.\main.c      ****                     UART_SendDebugData(RGBledData[RED_INDEX]);
 263              		.loc 1 194 0
 264 0156 4F4B     		ldr	r3, .L18+56
 265 0158 1B78     		ldrb	r3, [r3]
 266 015a 181C     		mov	r0, r3
 267 015c FFF7FEFF 		bl	UART_SendDebugData
 195:.\main.c      ****                     UART_PutCRLF();
 268              		.loc 1 195 0
 269 0160 FFF7FEFF 		bl	UART_PutCRLF
 196:.\main.c      ****                     UART_UartPutString("Blue Value: ");
 270              		.loc 1 196 0
 271 0164 4C4B     		ldr	r3, .L18+60
 272 0166 181C     		mov	r0, r3
 273 0168 FFF7FEFF 		bl	UART_UartPutString
 197:.\main.c      ****                     UART_SendDebugData(RGBledData[BLUE_INDEX]); 
 274              		.loc 1 197 0
 275 016c 494B     		ldr	r3, .L18+56
 276 016e 9B78     		ldrb	r3, [r3, #2]
 277 0170 181C     		mov	r0, r3
 278 0172 FFF7FEFF 		bl	UART_SendDebugData
 198:.\main.c      ****                     UART_PutCRLF();
 279              		.loc 1 198 0
 280 0176 FFF7FEFF 		bl	UART_PutCRLF
ARM GAS  C:\Users\Admin\AppData\Local\Temp\ccymS7Kd.s 			page 10


 199:.\main.c      ****                     UART_UartPutString("GREEN Value: ");
 281              		.loc 1 199 0
 282 017a 484B     		ldr	r3, .L18+64
 283 017c 181C     		mov	r0, r3
 284 017e FFF7FEFF 		bl	UART_UartPutString
 200:.\main.c      ****                     UART_SendDebugData(RGBledData[GREEN_INDEX]); 
 285              		.loc 1 200 0
 286 0182 444B     		ldr	r3, .L18+56
 287 0184 5B78     		ldrb	r3, [r3, #1]
 288 0186 181C     		mov	r0, r3
 289 0188 FFF7FEFF 		bl	UART_SendDebugData
 201:.\main.c      ****                     UART_PutCRLF();
 290              		.loc 1 201 0
 291 018c FFF7FEFF 		bl	UART_PutCRLF
 202:.\main.c      ****                     UART_UartPutString("Intensity Value: ");
 292              		.loc 1 202 0
 293 0190 434B     		ldr	r3, .L18+68
 294 0192 181C     		mov	r0, r3
 295 0194 FFF7FEFF 		bl	UART_UartPutString
 203:.\main.c      ****                     UART_SendDebugData(RGBledData[INTENSITY_INDEX]); 
 296              		.loc 1 203 0
 297 0198 3E4B     		ldr	r3, .L18+56
 298 019a DB78     		ldrb	r3, [r3, #3]
 299 019c 181C     		mov	r0, r3
 300 019e FFF7FEFF 		bl	UART_SendDebugData
 204:.\main.c      ****                     UART_PutCRLF();	
 301              		.loc 1 204 0
 302 01a2 FFF7FEFF 		bl	UART_PutCRLF
 205:.\main.c      **** 				#endif
 206:.\main.c      **** 				/* Reset the capture flag after computing the frequency */
 207:.\main.c      **** 				Input_Sig_Ctr_Capture = 0;
 303              		.loc 1 207 0
 304 01a6 2F4B     		ldr	r3, .L18+8
 305 01a8 0022     		mov	r2, #0
 306 01aa 1A70     		strb	r2, [r3]
 208:.\main.c      **** 				Ref_Clk_Ctr_Capture = 0;
 307              		.loc 1 208 0
 308 01ac 2E4B     		ldr	r3, .L18+12
 309 01ae 0022     		mov	r2, #0
 310 01b0 1A70     		strb	r2, [r3]
 311 01b2 23E0     		b	.L11
 312              	.L4:
 209:.\main.c      ****             }
 210:.\main.c      **** 			 
 211:.\main.c      **** 			/* If valid capture event is not registered, set the value of frequency to 
 212:.\main.c      **** 			   zero */
 213:.\main.c      **** 			    else
 214:.\main.c      **** 			    {
 215:.\main.c      **** 				/* Reset the input_frequency array before storing the frequency value */
 216:.\main.c      **** 				Reset_Array(Input_Frequency, DATA_END);
 313              		.loc 1 216 0
 314 01b4 354B     		ldr	r3, .L18+48
 315 01b6 181C     		mov	r0, r3
 316 01b8 0A21     		mov	r1, #10
 317 01ba FFF7FEFF 		bl	Reset_Array
 217:.\main.c      **** 
 218:.\main.c      **** 				/* If no capture event is detected in the 1s interval, set the frequency to zero */
ARM GAS  C:\Users\Admin\AppData\Local\Temp\ccymS7Kd.s 			page 11


 219:.\main.c      **** 				FormatFrequencyData(ZERO_HZ);
 318              		.loc 1 219 0
 319 01be 0420     		mov	r0, #4
 320 01c0 FFF7FEFF 		bl	FormatFrequencyData
 220:.\main.c      **** 				
 221:.\main.c      **** 				#if(UART_DEBUG_ENABLE)
 222:.\main.c      **** 					/* Print Input Signal Frequency in decimal format */
 223:.\main.c      **** 					UART_UartPutString("Input Frequency: ");
 321              		.loc 1 223 0
 322 01c4 304B     		ldr	r3, .L18+44
 323 01c6 181C     		mov	r0, r3
 324 01c8 FFF7FEFF 		bl	UART_UartPutString
 224:.\main.c      **** 					for(loopNo = 0; loopNo < DATA_END; loopNo++)
 325              		.loc 1 224 0
 326 01cc FB1D     		add	r3, r7, #7
 327 01ce 0022     		mov	r2, #0
 328 01d0 1A70     		strb	r2, [r3]
 329 01d2 0DE0     		b	.L12
 330              	.L13:
 225:.\main.c      **** 					{
 226:.\main.c      **** 						UART_UartPutChar(Input_Frequency[DATA_END - loopNo -1]);
 331              		.loc 1 226 0 discriminator 2
 332 01d4 FB1D     		add	r3, r7, #7
 333 01d6 1B78     		ldrb	r3, [r3]
 334 01d8 0922     		mov	r2, #9
 335 01da D31A     		sub	r3, r2, r3
 336 01dc 2B4A     		ldr	r2, .L18+48
 337 01de D35C     		ldrb	r3, [r2, r3]
 338 01e0 181C     		mov	r0, r3
 339 01e2 FFF7FEFF 		bl	UART_SpiUartWriteTxData
 224:.\main.c      **** 					for(loopNo = 0; loopNo < DATA_END; loopNo++)
 340              		.loc 1 224 0 discriminator 2
 341 01e6 FB1D     		add	r3, r7, #7
 342 01e8 1A78     		ldrb	r2, [r3]
 343 01ea FB1D     		add	r3, r7, #7
 344 01ec 0132     		add	r2, r2, #1
 345 01ee 1A70     		strb	r2, [r3]
 346              	.L12:
 224:.\main.c      **** 					for(loopNo = 0; loopNo < DATA_END; loopNo++)
 347              		.loc 1 224 0 is_stmt 0 discriminator 1
 348 01f0 FB1D     		add	r3, r7, #7
 349 01f2 1B78     		ldrb	r3, [r3]
 350 01f4 092B     		cmp	r3, #9
 351 01f6 EDD9     		bls	.L13
 227:.\main.c      **** 					}
 228:.\main.c      **** 					UART_PutCRLF();	
 352              		.loc 1 228 0 is_stmt 1
 353 01f8 FFF7FEFF 		bl	UART_PutCRLF
 354              	.L11:
 229:.\main.c      **** 				#endif
 230:.\main.c      **** 			}
 231:.\main.c      **** 			/* Reset the 2s interval flag for computing the frequency in the next interval */
 232:.\main.c      **** 			Calculate_Frequency = 0;
 355              		.loc 1 232 0
 356 01fc 184B     		ldr	r3, .L18+4
 357 01fe 0022     		mov	r2, #0
 358 0200 1A70     		strb	r2, [r3]
ARM GAS  C:\Users\Admin\AppData\Local\Temp\ccymS7Kd.s 			page 12


 233:.\main.c      **** 			/* Send frequency value only if BLE device is connected */
 234:.\main.c      **** 			if(TRUE == deviceConnected) 
 359              		.loc 1 234 0
 360 0202 284B     		ldr	r3, .L18+72
 361 0204 1B78     		ldrb	r3, [r3]
 362 0206 012B     		cmp	r3, #1
 363 0208 09D1     		bne	.L3
 235:.\main.c      **** 			{
 236:.\main.c      **** 				/* Send frequency value when notifications are enabled */
 237:.\main.c      **** 				if((startNotification & CCCD_NTF_BIT_MASK))
 364              		.loc 1 237 0
 365 020a 274B     		ldr	r3, .L18+76
 366 020c 1B78     		ldrb	r3, [r3]
 367 020e 1A1C     		mov	r2, r3
 368 0210 0123     		mov	r3, #1
 369 0212 1340     		and	r3, r2
 370 0214 03D0     		beq	.L3
 238:.\main.c      **** 				{
 239:.\main.c      **** 
 240:.\main.c      **** 					/* Send the frequency value to BLE central device by notifications */
 241:.\main.c      **** 					SendDataOverFreqCounterNotification(Input_Frequency);
 371              		.loc 1 241 0
 372 0216 1D4B     		ldr	r3, .L18+48
 373 0218 181C     		mov	r0, r3
 374 021a FFF7FEFF 		bl	SendDataOverFreqCounterNotification
 375              	.L3:
 242:.\main.c      **** 				}
 243:.\main.c      **** 			}
 244:.\main.c      **** 		}
 245:.\main.c      ****         RGBledData[RED_INDEX]=0x00;
 376              		.loc 1 245 0
 377 021e 1D4B     		ldr	r3, .L18+56
 378 0220 0022     		mov	r2, #0
 379 0222 1A70     		strb	r2, [r3]
 380              	.L2:
 140:.\main.c      ****         while (RGBledData[RED_INDEX]==0xff){
 381              		.loc 1 140 0 discriminator 1
 382 0224 1B4B     		ldr	r3, .L18+56
 383 0226 1B78     		ldrb	r3, [r3]
 384 0228 FF2B     		cmp	r3, #255
 385 022a 00D1     		bne	.LCB273
 386 022c 00E7     		b	.L14	@long jump
 387              	.LCB273:
 246:.\main.c      ****         }
 247:.\main.c      ****         
 248:.\main.c      **** 		
 249:.\main.c      **** 		/* Function to handle LED status depending on BLE state */
 250:.\main.c      **** 		//HandleStatusLED();
 251:.\main.c      **** 		
 252:.\main.c      **** 		/* Handle CCCD value update only if BLE device is connected */
 253:.\main.c      **** 		if(TRUE == deviceConnected) 
 388              		.loc 1 253 0
 389 022e 1D4B     		ldr	r3, .L18+72
 390 0230 1B78     		ldrb	r3, [r3]
 391 0232 012B     		cmp	r3, #1
 392 0234 01D1     		bne	.L15
 254:.\main.c      **** 		{
ARM GAS  C:\Users\Admin\AppData\Local\Temp\ccymS7Kd.s 			page 13


 255:.\main.c      **** 	      
 256:.\main.c      **** 			/* When the Client Characteristic Configuration descriptor (CCCD) is written
 257:.\main.c      **** 			* by Central device for enabling/disabling notifications, then the same
 258:.\main.c      **** 			* descriptor value has to be explicitly updated in application so that
 259:.\main.c      **** 			* it reflects the correct value when the descriptor is read */
 260:.\main.c      **** 			UpdateNotificationCCCD();	
 393              		.loc 1 260 0
 394 0236 FFF7FEFF 		bl	UpdateNotificationCCCD
 395              	.L15:
 261:.\main.c      **** 		}		
 262:.\main.c      **** 		if(restartAdvertisement)
 396              		.loc 1 262 0
 397 023a 1C4B     		ldr	r3, .L18+80
 398 023c 1B78     		ldrb	r3, [r3]
 399 023e 002B     		cmp	r3, #0
 400 0240 05D0     		beq	.L16
 263:.\main.c      **** 		{
 264:.\main.c      **** 			/* Reset 'restartAdvertisement' flag*/
 265:.\main.c      **** 			restartAdvertisement = FALSE;
 401              		.loc 1 265 0
 402 0242 1A4B     		ldr	r3, .L18+80
 403 0244 0022     		mov	r2, #0
 404 0246 1A70     		strb	r2, [r3]
 266:.\main.c      **** 			
 267:.\main.c      **** 			/* Start Advertisement and enter Discoverable mode*/
 268:.\main.c      **** 			CyBle_GappStartAdvertisement(CYBLE_ADVERTISING_FAST);	
 405              		.loc 1 268 0
 406 0248 0020     		mov	r0, #0
 407 024a FFF7FEFF 		bl	CyBle_GappStartAdvertisement
 408              	.L16:
 269:.\main.c      **** 		}
 270:.\main.c      **** 		/*Process Event callback to handle BLE events. The events generated and 
 271:.\main.c      **** 		* used for this application are inside the 'CustomEventHandler' routine*/
 272:.\main.c      **** 		CyBle_ProcessEvents();
 409              		.loc 1 272 0
 410 024e FFF7FEFF 		bl	CyBle_ProcessEvents
 273:.\main.c      **** 		
 274:.\main.c      **** 		/* Put CPU to sleep */
 275:.\main.c      **** 		CySysPmSleep();
 411              		.loc 1 275 0
 412 0252 FFF7FEFF 		bl	CySysPmSleep
 276:.\main.c      ****     }
 413              		.loc 1 276 0
 414 0256 C046     		mov	r8, r8
 140:.\main.c      ****         while (RGBledData[RED_INDEX]==0xff){
 415              		.loc 1 140 0
 416 0258 E4E7     		b	.L2
 417              	.L19:
 418 025a C046     		.align	2
 419              	.L18:
 420 025c 00000000 		.word	.LC0
 421 0260 00000000 		.word	Calculate_Frequency
 422 0264 00000000 		.word	Input_Sig_Ctr_Capture
 423 0268 00000000 		.word	Ref_Clk_Ctr_Capture
 424 026c 34000000 		.word	.LC5
 425 0270 00000000 		.word	Input_Signal_Count
 426 0274 54000000 		.word	.LC8
ARM GAS  C:\Users\Admin\AppData\Local\Temp\ccymS7Kd.s 			page 14


 427 0278 00000000 		.word	InputCounter_ASCII
 428 027c 5C000000 		.word	.LC11
 429 0280 00000000 		.word	Ref_Clock_Count
 430 0284 00000000 		.word	RefCounter_ASCII
 431 0288 7C000000 		.word	.LC15
 432 028c 00000000 		.word	Input_Frequency
 433 0290 90000000 		.word	.LC18
 434 0294 00000000 		.word	RGBledData
 435 0298 9C000000 		.word	.LC21
 436 029c AC000000 		.word	.LC23
 437 02a0 BC000000 		.word	.LC25
 438 02a4 00000000 		.word	deviceConnected
 439 02a8 00000000 		.word	startNotification
 440 02ac 00000000 		.word	restartAdvertisement
 441              		.cfi_endproc
 442              	.LFE35:
 443              		.size	main, .-main
 444              		.section	.text.InitializeSystem,"ax",%progbits
 445              		.align	2
 446              		.code	16
 447              		.thumb_func
 448              		.type	InitializeSystem, %function
 449              	InitializeSystem:
 450              	.LFB36:
 277:.\main.c      ****     return 0;
 278:.\main.c      **** }
 279:.\main.c      **** 
 280:.\main.c      **** /*******************************************************************************
 281:.\main.c      **** * Function Name: InitializeSystem
 282:.\main.c      **** ********************************************************************************
 283:.\main.c      **** * Summary:
 284:.\main.c      **** * Start the components and initialize system.
 285:.\main.c      **** *
 286:.\main.c      **** * Parameters:
 287:.\main.c      **** *  void
 288:.\main.c      **** *
 289:.\main.c      **** * Return:
 290:.\main.c      **** *  void
 291:.\main.c      **** *
 292:.\main.c      **** *******************************************************************************/
 293:.\main.c      **** void InitializeSystem(void)
 294:.\main.c      **** {
 451              		.loc 1 294 0
 452              		.cfi_startproc
 453 0000 80B5     		push	{r7, lr}
 454              		.cfi_def_cfa_offset 8
 455              		.cfi_offset 7, -8
 456              		.cfi_offset 14, -4
 457 0002 00AF     		add	r7, sp, #0
 458              		.cfi_def_cfa_register 7
 295:.\main.c      **** 	/* Start both the PrISM components for LED control*/
 296:.\main.c      ****     PRS_1_Start();
 459              		.loc 1 296 0
 460 0004 FFF7FEFF 		bl	PRS_1_Start
 297:.\main.c      ****     PRS_2_Start();
 461              		.loc 1 297 0
 462 0008 FFF7FEFF 		bl	PRS_2_Start
ARM GAS  C:\Users\Admin\AppData\Local\Temp\ccymS7Kd.s 			page 15


 298:.\main.c      **** 	
 299:.\main.c      **** 	/* The RGB LED on BLE Pioneer kit are active low. Drive HIGH on 
 300:.\main.c      **** 	 * pin for OFF and drive LOW on pin for ON*/
 301:.\main.c      **** 	PRS_1_WritePulse0(RGB_LED_OFF);
 463              		.loc 1 301 0
 464 000c FF20     		mov	r0, #255
 465 000e FFF7FEFF 		bl	PRS_1_WritePulse0
 302:.\main.c      **** 	PRS_1_WritePulse1(RGB_LED_OFF);
 466              		.loc 1 302 0
 467 0012 FF20     		mov	r0, #255
 468 0014 FFF7FEFF 		bl	PRS_1_WritePulse1
 303:.\main.c      **** 	PRS_2_WritePulse0(RGB_LED_OFF);
 469              		.loc 1 303 0
 470 0018 FF20     		mov	r0, #255
 471 001a FFF7FEFF 		bl	PRS_2_WritePulse0
 304:.\main.c      **** 	
 305:.\main.c      **** 	/* Set Drive mode of output pins from HiZ to Strong */
 306:.\main.c      **** 	RED_SetDriveMode(RED_DM_STRONG);
 472              		.loc 1 306 0
 473 001e 0620     		mov	r0, #6
 474 0020 FFF7FEFF 		bl	RED_SetDriveMode
 307:.\main.c      **** 	GREEN_SetDriveMode(GREEN_DM_STRONG);
 475              		.loc 1 307 0
 476 0024 0620     		mov	r0, #6
 477 0026 FFF7FEFF 		bl	GREEN_SetDriveMode
 308:.\main.c      **** 	BLUE_SetDriveMode(BLUE_DM_STRONG);
 478              		.loc 1 308 0
 479 002a 0620     		mov	r0, #6
 480 002c FFF7FEFF 		bl	BLUE_SetDriveMode
 309:.\main.c      **** }
 481              		.loc 1 309 0
 482 0030 BD46     		mov	sp, r7
 483              		@ sp needed
 484 0032 80BD     		pop	{r7, pc}
 485              		.cfi_endproc
 486              	.LFE36:
 487              		.size	InitializeSystem, .-InitializeSystem
 488              		.text
 489              	.Letext0:
 490              		.file 2 ".\\Generated_Source\\PSoC4/cytypes.h"
 491              		.file 3 ".\\BLEApplications.h"
 492              		.file 4 ".\\Generated_Source\\PSoC4/BLE_Stack.h"